(dp1
S'output'
p2
S'missing "pass" in view'
p3
sS'layer'
p4
S'ParserContainer'
p5
sS'code'
p6
S'response.write(\'<!DOCTYPE html>\\n<!--[if (gt IE 9)|!(IE)]><!--> <html class="no-js" lang="\', escape=False)\nresponse.write(T.accepted_language or \'en\')\nresponse.write(\'"> <!--<![endif]-->\\n  <head>\\n    <meta charset="utf-8">\\n    <!-- www.phpied.com/conditional-comments-block-downloads/ -->\\n    <!-- Always force latest IE rendering engine\\n         (even in intranet) & Chrome Frame\\n         Remove this if you use the .htaccess -->\\n    <meta http-equiv="X-UA-Compatible" content="IE=edge\', escape=False)\nresponse.write(not request.is_local and \',chrome=1\' or \'\')\nresponse.write(\'">\\n    <!--  Mobile Viewport Fix\\n          j.mp/mobileviewport & davidbcalhoun.com/2010/viewport-metatag\\n          device-width: Occupy full width of the screen in its current orientation\\n          initial-scale = 1.0 retains dimensions instead of zooming out if page height > device height\\n          user-scalable = yes allows the user to zoom in -->\\n    <meta name="viewport" content="width=device-width, initial-scale=1.0">\\n    <title>\', escape=False)\nresponse.write(response.title or request.application)\nresponse.write(\'</title>\\n    <!-- http://dev.w3.org/html5/markup/meta.name.html -->\\n    <meta name="application-name" content="\', escape=False)\nresponse.write(request.application)\nresponse.write(\'">\\n    <!-- Speaking of Google, don\\\'t forget to set your site up:\\n         http://google.com/webmasters -->\\n    <meta name="google-site-verification" content="">\\n    <!-- include stylesheets -->\\n    <link rel="stylesheet" href="\', escape=False)\nresponse.write(URL(\'static\',\'css/bootstrap.min.css\'))\nresponse.write(\'"/>\\n    <link rel="stylesheet" href="\', escape=False)\nresponse.write(URL(\'static\',\'css/web2py-bootstrap3.css\'))\nresponse.write(\'"/>\\n    <link rel="shortcut icon" href="\', escape=False)\nresponse.write(URL(\'static\',\'images/favicon.ico\'))\nresponse.write(\'" type="image/x-icon">\\n    <link rel="apple-touch-icon" href="\', escape=False)\nresponse.write(URL(\'static\',\'images/favicon.png\'))\nresponse.write(\'">\\n    <link rel="stylesheet" type="text/css" href="\', escape=False)\nresponse.write(URL(\'static\',\'css/theme/isotope.css\'))\nresponse.write(\'" media="screen" />\\n    <link rel="stylesheet" href="\', escape=False)\nresponse.write(URL(\'static\',\'js/fancybox/jquery.fancybox.css\'))\nresponse.write(\'" type="text/css" media="screen" />\\n    <link rel="stylesheet" href="\', escape=False)\nresponse.write(URL(\'static\',\'css/theme/bootstrap-theme.css\'))\nresponse.write(\'">\\n    <link rel="stylesheet" href="\', escape=False)\nresponse.write(URL(\'static\', \'css/theme/style.css\'))\nresponse.write(\'">\\n  <!-- skin -->\\n  <link rel="stylesheet" href="\', escape=False)\nresponse.write(URL(\'static\', \'skin/default.css\'))\nresponse.write(\'\\\'">\\n    <!-- All JavaScript at the bottom, except for Modernizr which enables\\n         HTML5 elements & feature detects -->\\n    <script src="\', escape=False)\nresponse.write(URL(\'static\',\'js/modernizr-2.8.3.min.js\'))\nresponse.write(\'"></script>\\n    <!--<script src="\', escape=False)\nresponse.write(URL(\'static\', \'js/modernizr-2.6.2-respond-1.1.0.min.js\'))\nresponse.write(\'"></script>-->\\n    \\n    <!--[if lt IE 9]>\\n        <script src="\', escape=False)\nresponse.write(URL(\'static\',\'js/respond-1.4.2.min.js\'))\nresponse.write(\'"></script>\\n        <![endif]-->\\n    <!-- Favicons -->\\n    \', escape=False)\nresponse.write(\'<script type="text/javascript"><!--\\n    // These variables are used by the web2py_ajax_init function in web2py_ajax.js (which is loaded below).\\n    var w2p_ajax_confirm_message = "\', escape=False)\nresponse.write(T(\'Are you sure you want to delete this object?\'))\nresponse.write(\'";\\n    var w2p_ajax_disable_with_message = "\', escape=False)\nresponse.write(T(\'Working...\'))\nresponse.write(\'";\\n    var w2p_ajax_date_format = "\', escape=False)\nresponse.write(T(\'%Y-%m-%d\'))\nresponse.write(\'";\\n    var w2p_ajax_datetime_format = "\', escape=False)\nresponse.write(T(\'%Y-%m-%d %H:%M:%S\'))\nresponse.write(\'";\\n    var ajax_error_500 = \\\'\', escape=False)\nresponse.write(T.M(\'An error occured, please [[reload %s]] the page\') % URL(args=request.args, vars=request.get_vars))\nresponse.write("\'\\n    //--></script>\\n", escape=False)\nresponse.files.insert(0,URL(\'static\',\'js/jquery.js\'))\nresponse.files.insert(1,URL(\'static\',\'css/calendar.css\'))\nresponse.files.insert(2,URL(\'static\',\'js/calendar.js\'))\nresponse.files.insert(3,URL(\'static\',\'js/web2py.js\'))\nresponse.include_meta()\nresponse.include_files()\nresponse.write(\'\\n\', escape=False)\nresponse.write(\' <!-- this includes jquery.js, calendar.js/.css and web2py.js -->\\n  </head>\\n  <body>\\n    <!--[if lt IE 8]><p class="browserupgrade">You are using an <strong>outdated</strong> browser. Please <a href="http://browsehappy.com/">upgrade your browser</a> to improve your experience.</p><![endif]-->\\n    <!-- Navbar ======================================= -->\\n     <section id="header" class="appear"></section>\\n    <div class="navbar navbar-fixed-top" role="navigation" data-0="line-height:100px; height:100px; background-color:rgba(0,0,0,0.3);" data-300="line-height:60px; height:60px; background-color:rgba(0,0,0,1);">\\n      <div class="container">\\n        <div class="navbar-header">\\n          <button type="button" class="navbar-toggle" data-toggle="collapse" data-target=".navbar-collapse">\\n              <span class="fa fa-bars color-white"></span>\\n            </button>\\n          <h1><i class="navbar-brand" src="\', escape=False)\nresponse.write(URL(\'static/images/eventify.png\'))\nresponse.write(\'" href="index.html" data-0="line-height:90px;" data-300="line-height:50px;">\\n            </i></h1>\\n        </div>\\n        <div class="navbar-collapse collapse">\\n          <ul class="nav navbar-nav" data-0="margin-top:20px;" data-300="margin-top:5px;">\\n            <li class="active"><a href="index.html">Home</a></li>\\n            <li><a href="#section-about">About</a></li>\\n            <li><a href="#section-works">Portfolio</a></li>\\n            <li><a href="#section-contact">Contact</a></li>\\n            <li class="dropdown">\\n              <a class="dropdown-toggle" data-toggle="dropdown" href="#">Entrar\\n              <span class="caret"></span></a>\\n              <ul class="dropdown-menu">\\n                \', escape=False)\nif not auth.is_logged_in():\n    response.write(\'\\n                <li><a href="\', escape=False)\n    response.write(URL(c=\'default\', f=\'user\'))\n    response.write(\'">Login</a></li>\\n                <li><a href="\', escape=False)\n    response.write(URL(c=\'default\', f=\'register\'))\n    response.write(\'">Registrar</a></li>\\n                \', escape=False)\nelse:\n    response.write(\'\\n                <li><a href="\', escape=False)\n    response.write(URL(c=\'default\', f=\'profile\'))\n    response.write(\'"><i class="fa fa-lock"></i>\\n              </ul>\\n            </li>\\n          </ul>\\n        </div>\\n        <!--/.navbar-collapse -->\\n      </div>\\n    </div>\\n    <!-- Main ========================================= -->\\n    <!-- Begin page content -->\\n    \', escape=False)\n    response.write(\'\\n\\n\\n  <section class="featured">\\n    <div class="container">\\n      <div class="row mar-bot40">\\n        <div class="col-md-6 col-md-offset-3">\\n\\n          <div class="align-center">\\n            <i class="fa fa-flask fa-5x mar-bot20"></i>\\n            <h2 class="slogan">Welcome to Eventify</h2>\\n            <h4>\\n              The best place to create and manage your conferences.\\n          </div>\\n        </div>\\n      </div>\\n    </div>\\n  </section>\\n\\n  <!-- services -->\\n  <section id="section-services" class="section pad-bot30 bg-white">\\n    <div class="container">\\n\\n      <div class="row mar-bot40">\\n        <div class="col-lg-4">\\n          <div class="align-center">\\n            <i class="fa fa-code fa-5x mar-bot20"></i>\\n            <h4 class="text-bold">Valid HTML5</h4>\\n            <p>Lorem ipsum dolor sit amet, mutat graeco volumus ad eam, singulis patrioque comprehensam nam no. Mei cu dicat voluptaria volumus.\\n            </p>\\n          </div>\\n        </div>\\n\\n        <div class="col-lg-4">\\n          <div class="align-center">\\n            <i class="fa fa-terminal fa-5x mar-bot20"></i>\\n            <h4 class="text-bold">Responsive</h4>\\n            <p>Lorem ipsum dolor sit amet, mutat graeco volumus ad eam, singulis patrioque comprehensam nam no. Mei cu dicat voluptaria volumus.\\n            </p>\\n          </div>\\n        </div>\\n\\n        <div class="col-lg-4">\\n          <div class="align-center">\\n            <i class="fa fa-bolt fa-5x mar-bot20"></i>\\n            <h4 class="text-bold">Customizable</h4>\\n            <p>Lorem ipsum dolor sit amet, mutat graeco volumus ad eam, singulis patrioque comprehensam nam no. Mei cu dicat voluptaria volumus.\\n            </p>\\n          </div>\\n        </div>\\n\\n      </div>\\n\\n    </div>\\n  </section>\\n\\n  <!-- spacer section:testimonial -->\\n  <section id="testimonials" class="section" data-stellar-background-ratio="0.5">\\n    <div class="container">\\n      <div class="row">\\n        <div class="col-lg-12">\\n          <div class="align-center">\\n            <div class="testimonial pad-top40 pad-bot40 clearfix">\\n              <h5>\\n                        Nunc velit risus, dapibus non interdum quis, suscipit nec dolor. Vivamus tempor tempus mauris vitae fermentum. In vitae nulla lacus. Sed sagittis tortor vel arcu sollicitudin nec tincidunt metus suscipit.Nunc velit risus, dapibus non interdum.\\n                      </h5>\\n              <br/>\\n              <span class="author">&mdash; MIKE DOE <a href="#">www.siteurl.com</a></span>\\n            </div>\\n\\n          </div>\\n        </div>\\n\\n      </div>\\n    </div>\\n  </section>\\n\\n  <!-- about -->\\n  <section id="section-about" class="section appear clearfix">\\n    <div class="container">\\n\\n      <div class="row mar-bot40">\\n        <div class="col-md-offset-3 col-md-6">\\n          <div class="section-header">\\n            <h2 class="section-heading animated" data-animation="bounceInUp">Our Team</h2>\\n            <p>Neque porro quisquam est, qui dolorem ipsum quia dolor sit amet consectetur, adipisci velit, sed quia non numquam.</p>\\n          </div>\\n        </div>\\n      </div>\\n\\n      <div class="row align-center mar-bot40">\\n        <div class="col-md-3">\\n          <div class="team-member">\\n            <figure class="member-photo"><img src="img/team/member1.jpg" alt="" /></figure>\\n            <div class="team-detail">\\n              <h4>Jason Doe</h4>\\n              <span>User experiences</span>\\n            </div>\\n          </div>\\n        </div>\\n        <div class="col-md-3">\\n          <div class="team-member">\\n            <figure class="member-photo"><img src="img/team/member2.jpg" alt="" /></figure>\\n            <div class="team-detail">\\n              <h4>Timothy Clark</h4>\\n              <span>Web developer</span>\\n            </div>\\n          </div>\\n        </div>\\n        <div class="col-md-3">\\n          <div class="team-member">\\n            <figure class="member-photo"><img src="img/team/member3.jpg" alt="" /></figure>\\n            <div class="team-detail">\\n              <h4>Vicky Tan</h4>\\n              <span>Web designer</span>\\n            </div>\\n          </div>\\n        </div>\\n        <div class="col-md-3">\\n          <div class="team-member">\\n            <figure class="member-photo"><img src="img/team/member4.jpg" alt="" /></figure>\\n            <div class="team-detail">\\n              <h4>Kevin Peterson</h4>\\n              <span>UI designer</span>\\n            </div>\\n          </div>\\n        </div>\\n      </div>\\n\\n    </div>\\n  </section>\\n  <!-- /about -->\\n\\n  <!-- spacer section:stats -->\\n  <section id="parallax1" class="section pad-top40 pad-bot40" data-stellar-background-ratio="0.5">\\n    <div class="container">\\n      <div class="align-center pad-top40 pad-bot40">\\n        <blockquote class="bigquote color-white">Indoctum accusamus comprehensam</blockquote>\\n        <p class="color-white">Bootstraptaste</p>\\n      </div>\\n    </div>\\n  </section>\\n\\n  <!-- section works -->\\n  <section id="section-works" class="section appear clearfix">\\n    <div class="container">\\n\\n      <div class="row mar-bot40">\\n        <div class="col-md-offset-3 col-md-6">\\n          <div class="section-header">\\n            <h2 class="section-heading animated" data-animation="bounceInUp">Portfolio</h2>\\n            <p>Neque porro quisquam est, qui dolorem ipsum quia dolor sit amet consectetur, adipisci velit, sed quia non numquam.</p>\\n          </div>\\n        </div>\\n      </div>\\n\\n      <div class="row">\\n        <nav id="filter" class="col-md-12 text-center">\\n          <ul>\\n            <li><a href="#" class="current btn-theme btn-small" data-filter="*">All</a></li>\\n            <li><a href="#" class="btn-theme btn-small" data-filter=".webdesign">Web Design</a></li>\\n            <li><a href="#" class="btn-theme btn-small" data-filter=".photography">Photography</a></li>\\n            <li><a href="#" class="btn-theme btn-small" data-filter=".print">Print</a></li>\\n          </ul>\\n        </nav>\\n        <div class="col-md-12">\\n          <div class="row">\\n            <div class="portfolio-items isotopeWrapper clearfix" id="3">\\n\\n              <article class="col-md-4 isotopeItem webdesign">\\n                <div class="portfolio-item">\\n                  <img src="img/portfolio/img1.jpg" alt="" />\\n                  <div class="portfolio-desc align-center">\\n                    <div class="folio-info">\\n                      <h5><a href="#">Portfolio name</a></h5>\\n                      <a href="img/portfolio/img1.jpg" class="fancybox"><i class="fa fa-plus fa-2x"></i></a>\\n                    </div>\\n                  </div>\\n                </div>\\n              </article>\\n\\n              <article class="col-md-4 isotopeItem photography">\\n                <div class="portfolio-item">\\n                  <img src="img/portfolio/img2.jpg" alt="" />\\n                  <div class="portfolio-desc align-center">\\n                    <div class="folio-info">\\n                      <h5><a href="#">Portfolio name</a></h5>\\n                      <a href="img/portfolio/img2.jpg" class="fancybox"><i class="fa fa-plus fa-2x"></i></a>\\n                    </div>\\n                  </div>\\n                </div>\\n              </article>\\n\\n\\n              <article class="col-md-4 isotopeItem photography">\\n                <div class="portfolio-item">\\n                  <img src="img/portfolio/img3.jpg" alt="" />\\n                  <div class="portfolio-desc align-center">\\n                    <div class="folio-info">\\n                      <h5><a href="#">Portfolio name</a></h5>\\n                      <a href="img/portfolio/img3.jpg" class="fancybox"><i class="fa fa-plus fa-2x"></i></a>\\n                    </div>\\n                  </div>\\n                </div>\\n              </article>\\n\\n              <article class="col-md-4 isotopeItem print">\\n                <div class="portfolio-item">\\n                  <img src="img/portfolio/img4.jpg" alt="" />\\n                  <div class="portfolio-desc align-center">\\n                    <div class="folio-info">\\n                      <h5><a href="#">Portfolio name</a></h5>\\n                      <a href="img/portfolio/img4.jpg" class="fancybox"><i class="fa fa-plus fa-2x"></i></a>\\n                    </div>\\n                  </div>\\n                </div>\\n              </article>\\n\\n              <article class="col-md-4 isotopeItem photography">\\n                <div class="portfolio-item">\\n                  <img src="img/portfolio/img5.jpg" alt="" />\\n                  <div class="portfolio-desc align-center">\\n                    <div class="folio-info">\\n                      <h5><a href="#">Portfolio name</a></h5>\\n                      <a href="img/portfolio/img5.jpg" class="fancybox"><i class="fa fa-plus fa-2x"></i></a>\\n                    </div>\\n                  </div>\\n                </div>\\n              </article>\\n\\n              <article class="col-md-4 isotopeItem webdesign">\\n                <div class="portfolio-item">\\n                  <img src="img/portfolio/img6.jpg" alt="" />\\n                  <div class="portfolio-desc align-center">\\n                    <div class="folio-info">\\n                      <h5><a href="#">Portfolio name</a></h5>\\n                      <a href="img/portfolio/img6.jpg" class="fancybox"><i class="fa fa-plus fa-2x"></i></a>\\n                    </div>\\n                  </div>\\n                </div>\\n              </article>\\n\\n              <article class="col-md-4 isotopeItem print">\\n                <div class="portfolio-item">\\n                  <img src="img/portfolio/img7.jpg" alt="" />\\n                  <div class="portfolio-desc align-center">\\n                    <div class="folio-info">\\n                      <h5><a href="#">Portfolio name</a></h5>\\n                      <a href="img/portfolio/img7.jpg" class="fancybox"><i class="fa fa-plus fa-2x"></i></a>\\n                    </div>\\n                  </div>\\n                </div>\\n              </article>\\n\\n              <article class="col-md-4 isotopeItem photography">\\n                <div class="portfolio-item">\\n                  <img src="img/portfolio/img8.jpg" alt="" />\\n                  <div class="portfolio-desc align-center">\\n                    <div class="folio-info">\\n                      <h5><a href="#">Portfolio name</a></h5>\\n                      <a href="img/portfolio/img8.jpg" class="fancybox"><i class="fa fa-plus fa-2x"></i></a>\\n                    </div>\\n                  </div>\\n                </div>\\n              </article>\\n\\n              <article class="col-md-4 isotopeItem print">\\n                <div class="portfolio-item">\\n                  <img src="img/portfolio/img9.jpg" alt="" />\\n                  <div class="portfolio-desc align-center">\\n                    <div class="folio-info">\\n                      <h5><a href="#">Portfolio name</a></h5>\\n                      <a href="img/portfolio/img9.jpg" class="fancybox"><i class="fa fa-plus fa-2x"></i></a>\\n                    </div>\\n                  </div>\\n                </div>\\n              </article>\\n            </div>\\n\\n          </div>\\n\\n\\n        </div>\\n      </div>\\n\\n    </div>\\n  </section>\\n  <section id="parallax2" class="section parallax" data-stellar-background-ratio="0.5">\\n    <div class="align-center pad-top40 pad-bot40">\\n      <blockquote class="bigquote color-white">Indoctum accusamus comprehensam</blockquote>\\n      <p class="color-white">Bootstraptaste</p>\\n    </div>\\n  </section>\\n\\n  <!-- contact -->\\n  <section id="section-contact" class="section appear clearfix">\\n    <div class="container">\\n\\n      <div class="row mar-bot40">\\n        <div class="col-md-offset-3 col-md-6">\\n          <div class="section-header">\\n            <h2 class="section-heading animated" data-animation="bounceInUp">Contact us</h2>\\n            <p>Neque porro quisquam est, qui dolorem ipsum quia dolor sit amet consectetur, adipisci velit, sed quia non numquam.</p>\\n          </div>\\n        </div>\\n      </div>\\n      <div class="row">\\n        <div class="col-md-8 col-md-offset-2">\\n          <div class="cform" id="contact-form">\\n            <div id="sendmessage">\\n              Your message has been sent. Thank you!\\n            </div>\\n            <div id="errormessage"></div>\\n            <form action="" method="post" role="form" class="contactForm">\\n              <div class="form-group">\\n                <label for="name">Your Name</label>\\n                <input type="text" name="name" class="form-control" id="name" placeholder="Your Name" data-rule="minlen:4" data-msg="Please enter at least 4 chars" />\\n                <div class="validation"></div>\\n              </div>\\n              <div class="form-group">\\n                <label for="email">Your Email</label>\\n                <input type="email" class="form-control" name="email" id="email" placeholder="Your Email" data-rule="email" data-msg="Please enter a valid email" />\\n                <div class="validation"></div>\\n              </div>\\n              <div class="form-group">\\n                <label for="subject">Subject</label>\\n                <input type="text" class="form-control" name="subject" id="subject" placeholder="Subject" data-rule="minlen:4" data-msg="Please enter at least 8 chars of subject" />\\n                <div class="validation"></div>\\n              </div>\\n              <div class="form-group">\\n                <label for="message">Message</label>\\n                <textarea class="form-control" name="message" rows="5" data-rule="required" data-msg="Please write something for us"></textarea>\\n                <div class="validation"></div>\\n              </div>\\n\\n              <button type="submit" class="btn btn-theme pull-left">SEND MESSAGE</button>\\n            </form>\\n\\n          </div>\\n        </div>\\n        <!-- ./span12 -->\\n      </div>\\n\\n    </div>\\n  </section>\\n  <!-- map -->\\n  <section id="section-map" class="clearfix">\\n    <div id="google-map" data-latitude="40.713732" data-longitude="-74.0092704"></div>\\n  </section>\\n\\n  <section id="footer" class="section footer">\\n    <div class="container">\\n      <div class="row animated opacity mar-bot20" data-andown="fadeIn" data-animation="animation">\\n        <div class="col-sm-12 align-center">\\n          <ul class="social-network social-circle">\\n            <li><a href="#" class="icoRss" title="Rss"><i class="fa fa-rss"></i></a></li>\\n            <li><a href="#" class="icoFacebook" title="Facebook"><i class="fa fa-facebook"></i></a></li>\\n            <li><a href="#" class="icoTwitter" title="Twitter"><i class="fa fa-twitter"></i></a></li>\\n            <li><a href="#" class="icoGoogle" title="Google +"><i class="fa fa-google-plus"></i></a></li>\\n            <li><a href="#" class="icoLinkedin" title="Linkedin"><i class="fa fa-linkedin"></i></a></li>\\n          </ul>\\n        </div>\\n      </div>\\n\\n      <div class="row align-center copyright">\\n        <div class="col-sm-12">\\n          <p>Copyright &copy; Amoeba</p>\\n          <div class="credits">\\n            <!--\\n              All the links in the footer should remain intact.\\n              You can delete the links only if you purchased the pro version.\\n              Licensing information: https://bootstrapmade.com/license/\\n              Purchase the pro version with working PHP/AJAX contact form: https://bootstrapmade.com/buy/?theme=Amoeba\\n            -->\\n            <a href="https://bootstrapmade.com/">Bootstrap Themes</a> by <a href="https://bootstrapmade.com/">BootstrapMade</a>\\n          </div>\\n        </div>\\n      </div>\\n    </div>\\n\\n  </section>\\n\\n</html>\\n\\n\', escape=False)\n    response.write(\'\\n\\n    \\n    <!-- The javascript =============================== -->\\n    <script src="\', escape=False)\n    response.write(URL(\'static\',\'js/bootstrap.min.js\'))\n    response.write(\'"></script>\\n    <script src="\', escape=False)\n    response.write(URL(\'static\',\'js/web2py-bootstrap3.js\'))\n    response.write(\'"></script>\\n    <script src="\', escape=False)\n    response.write(URL(\'static\',\'js/jquery.js\'))\n    response.write(\'"></script>\\n    <script src="\', escape=False)\n    response.write(URL(\'static\',\'js/theme/jquery.easing.1.3.js\'))\n    response.write(\'"></script>\\n    <script src="https://maps.google.com/maps/api/js?sensor=true"></script>\\n    <script src="\', escape=False)\n    response.write(URL(\'static\',\'js/theme/jquery.isotope.min.js\'))\n    response.write(\'"></script>\\n    <script src="\', escape=False)\n    response.write(URL(\'static\',\'js/theme/jquery.nicescroll.min.js\'))\n    response.write(\'"></script>\\n    <script src="\', escape=False)\n    response.write(URL(\'static\',\'js/fancybox/jquery.fancybox.pack.js\'))\n    response.write(\'"></script>\\n    <script src="\', escape=False)\n    response.write(URL(\'static\',\'js/theme/skrollr.min.js\'))\n    response.write(\'"></script>\\n    <script src="\', escape=False)\n    response.write(URL(\'static\',\'js/theme/jquery.scrollTo.js\'))\n    response.write(\'"></script>\\n    <script src="\', escape=False)\n    response.write(URL(\'static\',\'js/theme/jquery.localScroll.js\'))\n    response.write(\'"></script>\\n    <script src="\', escape=False)\n    response.write(URL(\'static\',\'js/theme/stellar.js\'))\n    response.write(\'"></script>\\n    <script src="\', escape=False)\n    response.write(URL(\'static\',\'js/jquery.appear.js\'))\n    response.write(\'"></script>\\n    <script src="\', escape=False)\n    response.write(URL(\'static\',\'js/theme/main.js\'))\n    response.write(\'"></script>\\n    <script src="\', escape=False)\n    response.write(URL(\'static\',\'contactform/contactform.js\'))\n    response.write(\'"></script>\\n    \', escape=False)\n    response.write(\'\\n    \', escape=False)\n    if response.google_analytics_id:\n        response.write(\'\\n    <!-- Analytics ==================================== -->\\n    <script src="\', escape=False)\n        response.write(URL(\'static\',\'js/analytics.min.js\'))\n        response.write(\'"></script>\\n    <script type="text/javascript">\\n      analytics.initialize({\\n      \\\'Google Analytics\\\':{trackingId:\\\'\', escape=False)\n        response.write(response.google_analytics_id)\n        response.write("\'}\\n      });\\n    </script>\\n    ", escape=False)\n        pass\n    response.write(\'\\n    <!-- Share ============================y============ -->\\n    <script src="\', escape=False)\n    response.write(URL(\'static\',\'js/share.js\',vars=dict(static=URL(\'static\',\'images\'))))\n    response.write(\'"></script>\\n  </body>\\n</html>\\n\', escape=False)'
p7
sS'snapshot'
p8
(dp9
S'exception'
p10
(dp11
S'__module__'
p12
S"'gluon.rocket'"
p13
sS'__getslice__'
p14
S"<method-wrapper '__getslice__' of SocketTimeout object>"
p15
sS'__str__'
p16
S"<method-wrapper '__str__' of SocketTimeout object>"
p17
sS'__reduce__'
p18
S'<built-in method __reduce__ of SocketTimeout object>'
p19
sS'__dict__'
p20
S'{}'
p21
sS'__sizeof__'
p22
S'<built-in method __sizeof__ of SocketTimeout object>'
p23
sS'__weakref__'
p24
S'None'
p25
sS'__init__'
p26
S"<method-wrapper '__init__' of SocketTimeout object>"
p27
sS'__setattr__'
p28
S"<method-wrapper '__setattr__' of SocketTimeout object>"
p29
sS'__reduce_ex__'
p30
S'<built-in method __reduce_ex__ of SocketTimeout object>'
p31
sS'__new__'
p32
S'<built-in method __new__ of type object>'
p33
sS'__format__'
p34
S'<built-in method __format__ of SocketTimeout object>'
p35
sS'__class__'
p36
S"<class 'gluon.rocket.SocketTimeout'>"
p37
sS'__doc__'
p38
S"'Exception for when a socket times out between requests.'"
p39
sS'__getitem__'
p40
S"<method-wrapper '__getitem__' of SocketTimeout object>"
p41
sS'__setstate__'
p42
S'<built-in method __setstate__ of SocketTimeout object>'
p43
sS'__getattribute__'
p44
S"<method-wrapper '__getattribute__' of SocketTimeout object>"
p45
sS'args'
p46
S"('Socket timed out before request.',)"
p47
sS'__subclasshook__'
p48
S'<built-in method __subclasshook__ of type object>'
p49
sS'__unicode__'
p50
S'<built-in method __unicode__ of SocketTimeout object>'
p51
sS'__delattr__'
p52
S"<method-wrapper '__delattr__' of SocketTimeout object>"
p53
sS'__repr__'
p54
S"<method-wrapper '__repr__' of SocketTimeout object>"
p55
sS'__hash__'
p56
S"<method-wrapper '__hash__' of SocketTimeout object>"
p57
ssS'evalue'
p58
S'Socket timed out before request.'
p59
sS'frames'
p60
(lp61
(dp62
S'file'
p63
S'/home/leonardodutra/workspace/eventify/gluon/rocket.py'
p64
sS'dump'
p65
(dp66
S'self'
p67
S'<WSGIWorker(Thread-7, started daemon 140665312753408)>'
p68
sS'conn'
p69
S'<gluon.rocket.Connection object>'
p70
sS'self.run_app'
p71
S'<bound method WSGIWorker.run_app of <WSGIWorker(Thread-7, started daemon 140665312753408)>>'
p72
ssS'lnum'
p73
I1337
sS'lines'
p74
(dp75
I1332
S'            # Enter connection serve loop'
p76
sI1333
S'            while True:'
p77
sI1334
S'                if __debug__:'
p78
sI1335
S"                    self.err_log.debug('Serving a request')"
p79
sI1336
S'                try:'
p80
sI1337
S'                    self.run_app(conn)'
p81
sI1338
S'                except:'
p82
sI1339
S'                    exc = sys.exc_info()'
p83
sI1340
S'                    handled = self._handleError(*exc)'
p84
sI1341
S'                    if handled:'
p85
ssS'call'
p86
S'(self=<WSGIWorker(Thread-7, started daemon 140665312753408)>)'
p87
sS'func'
p88
S'run'
p89
sa(dp90
g63
S'/home/leonardodutra/workspace/eventify/gluon/rocket.py'
p91
sg65
(dp92
S'self'
p93
S'<WSGIWorker(Thread-7, started daemon 140665312753408)>'
p94
sS'self.environ'
p95
S"{'HTTP_ACCEPT': 'text/html,application/xhtml+xml,application/xml;q=0.9,image/webp,*/*;q=0.8', 'HTTP_ACCEPT_ENCODING': 'gzip, deflate, sdch, br', 'HTTP_ACCEPT_LANGUAGE': 'pt-BR,pt;q=0.8,en-US;q=0.6,en;q=0.4,es;q=0.2', 'HTTP_CACHE_CONTROL': 'max-age=0', 'HTTP_CONNECTION': 'keep-alive', 'HTTP_COOKIE': 'session_id_welcome=127.0.0.1-0aa23aba-a049-49bc-...in=127.0.0.1-fc20ec17-e8be-43bf-845e-20171d171216', 'HTTP_HOST': '127.0.0.1:8000', 'HTTP_UPGRADE_INSECURE_REQUESTS': '1', 'HTTP_USER_AGENT': 'Mozilla/5.0 (X11; Linux x86_64) AppleWebKit/537....ML, like Gecko) Chrome/58.0.3029.81 Safari/537.36', 'PATH_INFO': '/eventify/default/', ...}"
p96
sS'sock_file'
p97
S'<socket._fileobject object>'
p98
sS'environ'
p99
S'undefined'
p100
sS'self.build_environ'
p101
S'<bound method WSGIWorker.build_environ of <WSGIWorker(Thread-7, started daemon 140665312753408)>>'
p102
sS'conn'
p103
S'<gluon.rocket.Connection object>'
p104
ssg73
I1830
sg74
(dp105
I1825
S'        else:'
p106
sI1826
S'            sock_file = conn.makefile(BUF_SIZE)'
p107
sI1827
S''
sI1828
S'        try:'
p108
sI1829
S'            # Read the headers and build our WSGI environment'
p109
sI1830
S'            self.environ = environ = self.build_environ(sock_file, conn)'
p110
sI1831
S''
sI1832
S'            # Handle 100 Continue'
p111
sI1833
S"            if environ.get('HTTP_EXPECT', '') == '100-continue':"
p112
sI1834
S"                res = environ['SERVER_PROTOCOL'] + ' 100 Continue\\r\\n\\r\\n'"
p113
ssg86
S'(self=<WSGIWorker(Thread-7, started daemon 140665312753408)>, conn=<gluon.rocket.Connection object>)'
p114
sg88
S'run_app'
p115
sa(dp116
g63
S'/home/leonardodutra/workspace/eventify/gluon/rocket.py'
p117
sg65
(dp118
S'sock_file'
p119
S'<socket._fileobject object>'
p120
sS'self.read_request_line'
p121
S'<bound method WSGIWorker.read_request_line of <W...orker(Thread-7, started daemon 140665312753408)>>'
p122
sS'self'
p123
S'<WSGIWorker(Thread-7, started daemon 140665312753408)>'
p124
sS'request'
p125
g100
ssg73
I1650
sg74
(dp126
I1645
S'                                      "wsgiorg.futures": executor.futures})'
p127
sI1646
S''
sI1647
S'    def build_environ(self, sock_file, conn):'
p128
sI1648
S'        """ Build the execution environment. """'
p129
sI1649
S'        # Grab the request line'
p130
sI1650
S'        request = self.read_request_line(sock_file)'
p131
sI1651
S''
sI1652
S'        # Copy the Base Environment'
p132
sI1653
S'        environ = self.base_environ.copy()'
p133
sI1654
S''
ssg86
S'(self=<WSGIWorker(Thread-7, started daemon 140665312753408)>, sock_file=<socket._fileobject object>, conn=<gluon.rocket.Connection object>)'
p134
sg88
S'build_environ'
p135
sa(dp136
g63
S'/home/leonardodutra/workspace/eventify/gluon/rocket.py'
p137
sg65
(dp138
S'global SocketTimeout'
p139
S"<class 'gluon.rocket.SocketTimeout'>"
p140
ssg73
I1401
sg74
(dp141
I1396
S''
sI1397
S'                d = sock_file.readline()'
p142
sI1398
S'                if PY3K:'
p143
sI1399
S"                    d = d.decode('ISO-8859-1')"
p144
sI1400
S'        except socket.timeout:'
p145
sI1401
S"            raise SocketTimeout('Socket timed out before request.')"
p146
sI1402
S'        except TypeError:'
p147
sI1403
S'            raise SocketClosed('
p148
sI1404
S"                'SSL bug caused closure of socket.  See '"
p149
sI1405
S'                \'"https://groups.google.com/d/topic/web2py/P_Gw0JxWzCs".\')'
p150
ssg86
S'(self=<WSGIWorker(Thread-7, started daemon 140665312753408)>, sock_file=<socket._fileobject object>)'
p151
sg88
S'read_request_line'
p152
sasS'pyver'
p153
S'Python 2.7.6: /usr/bin/python2 (prefix: /usr)'
p154
sS'etype'
p155
S"<class 'gluon.rocket.SocketTimeout'>"
p156
sS'date'
p157
S'Thu Nov 16 22:33:11 2017'
p158
sS'locals'
p159
(dp160
S'sock_file'
p161
S'<socket._fileobject object>'
p162
sS'self'
p163
S'<WSGIWorker(Thread-7, started daemon 140665312753408)>'
p164
sssS'traceback'
p165
S'Traceback (most recent call last):\n  File "/home/leonardodutra/workspace/eventify/gluon/rocket.py", line 1337, in run\n    self.run_app(conn)\n  File "/home/leonardodutra/workspace/eventify/gluon/rocket.py", line 1830, in run_app\n    self.environ = environ = self.build_environ(sock_file, conn)\n  File "/home/leonardodutra/workspace/eventify/gluon/rocket.py", line 1650, in build_environ\n    request = self.read_request_line(sock_file)\n  File "/home/leonardodutra/workspace/eventify/gluon/rocket.py", line 1401, in read_request_line\n    raise SocketTimeout(\'Socket timed out before request.\')\nSocketTimeout: Socket timed out before request.\n'
p166
s.