(dp1
S'output'
p2
S"<class 'sqlite3.OperationalError'> Cannot add a NOT NULL column with default value NULL"
p3
sS'layer'
p4
S'/home/leonardodutra/workspace/eventify/applications/eventify/models/db.py'
p5
sS'code'
p6
S'# -*- coding: utf-8 -*-\n\n# -------------------------------------------------------------------------\n# This scaffolding model makes your app work on Google App Engine too\n# File is released under public domain and you can use without limitations\n# -------------------------------------------------------------------------\n\nif request.global_settings.web2py_version < "2.14.1":\n    raise HTTP(500, "Requires web2py 2.13.3 or newer")\n\n# -------------------------------------------------------------------------\n# if SSL/HTTPS is properly configured and you want all HTTP requests to\n# be redirected to HTTPS, uncomment the line below:\n# -------------------------------------------------------------------------\n# request.requires_https()\n\n# -------------------------------------------------------------------------\n# app configuration made easy. Look inside private/appconfig.ini\n# -------------------------------------------------------------------------\nfrom gluon.contrib.appconfig import AppConfig\n\n# -------------------------------------------------------------------------\n# once in production, remove reload=True to gain full speed\n# -------------------------------------------------------------------------\nmyconf = AppConfig(reload=True)\n\nif not request.env.web2py_runtime_gae:\n    # ---------------------------------------------------------------------\n    # if NOT running on Google App Engine use SQLite or other DB\n    # ---------------------------------------------------------------------\n    db = DAL(myconf.get(\'db.uri\'),\n             pool_size=myconf.get(\'db.pool_size\'),\n             migrate_enabled=myconf.get(\'db.migrate\'),\n             check_reserved=[\'all\'])\nelse:\n    # ---------------------------------------------------------------------\n    # connect to Google BigTable (optional \'google:datastore://namespace\')\n    # ---------------------------------------------------------------------\n    db = DAL(\'google:datastore+ndb\')\n    # ---------------------------------------------------------------------\n    # store sessions and tickets there\n    # ---------------------------------------------------------------------\n    session.connect(request, response, db=db)\n    # ---------------------------------------------------------------------\n    # or store session in Memcache, Redis, etc.\n    # from gluon.contrib.memdb import MEMDB\n    # from google.appengine.api.memcache import Client\n    # session.connect(request, response, db = MEMDB(Client()))\n    # ---------------------------------------------------------------------\n\n# -------------------------------------------------------------------------\n# by default give a view/generic.extension to all actions from localhost\n# none otherwise. a pattern can be \'controller/function.extension\'\n# -------------------------------------------------------------------------\nresponse.generic_patterns = [\'*\'] if request.is_local else []\n# -------------------------------------------------------------------------\n# choose a style for forms\n# -------------------------------------------------------------------------\nresponse.formstyle = myconf.get(\'forms.formstyle\')  # or \'bootstrap3_stacked\' or \'bootstrap2\' or other\nresponse.form_label_separator = myconf.get(\'forms.separator\') or \'\'\n\n# -------------------------------------------------------------------------\n# (optional) optimize handling of static files\n# -------------------------------------------------------------------------\n# response.optimize_css = \'concat,minify,inline\'\n# response.optimize_js = \'concat,minify,inline\'\n\n# -------------------------------------------------------------------------\n# (optional) static assets folder versioning\n# -------------------------------------------------------------------------\n# response.static_version = \'0.0.0\'\n\n# -------------------------------------------------------------------------\n# Here is sample code if you need for\n# - email capabilities\n# - authentication (registration, login, logout, ... )\n# - authorization (role based authorization)\n# - services (xml, csv, json, xmlrpc, jsonrpc, amf, rss)\n# - old style crud actions\n# (more options discussed in gluon/tools.py)\n# -------------------------------------------------------------------------\n\nfrom gluon.tools import Auth, Service, PluginManager\n\n# host names must be a list of allowed host names (glob syntax allowed)\nauth = Auth(db, host_names=myconf.get(\'host.names\'))\nservice = Service()\nplugins = PluginManager()\n\n## custom fields for user\nauth.settings.extra_fields[\'auth_user\'] = [\n    Field(\'instituicao\', \'string\', label=T(\'Institui\xc3\xa7\xc3\xa3o\'), notnull=True,length=100),\n    Field(\'tipo\', \'string\', label=T(\'Tipo de Cadastro\'), requires=IS_IN_SET((\'Pesquisador\', \'Gradua\xc3\xa7\xc3\xa3o\', \'P\xc3\xb3s-gradua\xc3\xa7\xc3\xa3o\'))),\n    ]\n# -------------------------------------------------------------------------\n# create all tables needed by auth if not custom tables\n# -------------------------------------------------------------------------\nauth.define_tables(username=False, signature=False)\n\n# -------------------------------------------------------------------------\n# configure email\n# -------------------------------------------------------------------------\nmail = auth.settings.mailer\nmail.settings.server = \'logging\' if request.is_local else myconf.get(\'smtp.server\')\nmail.settings.sender = myconf.get(\'smtp.sender\')\nmail.settings.login = myconf.get(\'smtp.login\')\nmail.settings.tls = myconf.get(\'smtp.tls\') or False\nmail.settings.ssl = myconf.get(\'smtp.ssl\') or False\n\n# -------------------------------------------------------------------------\n# configure auth policy\n# -------------------------------------------------------------------------\nauth.settings.registration_requires_verification = False\nauth.settings.registration_requires_approval = False\nauth.settings.reset_password_requires_verification = True\n\n# -------------------------------------------------------------------------\n# Define your tables below (or better in another model file) for example\n#\n# >>> db.define_table(\'mytable\', Field(\'myfield\', \'string\'))\n#\n# Fields can be \'string\',\'text\',\'password\',\'integer\',\'double\',\'boolean\'\n#       \'date\',\'time\',\'datetime\',\'blob\',\'upload\', \'reference TABLENAME\'\n# There is an implicit \'id integer autoincrement\' field\n# Consult manual for more options, validators, etc.\n#\n# More API examples for controllers:\n#\n# >>> db.mytable.insert(myfield=\'value\')\n# >>> rows = db(db.mytable.myfield == \'value\').select(db.mytable.ALL)\n# >>> for row in rows: print row.id, row.myfield\n# -------------------------------------------------------------------------\n\n# -------------------------------------------------------------------------\n# after defining tables, uncomment below to enable auditing\n# -------------------------------------------------------------------------\n# auth.enable_record_versioning(db)\n'
p7
sS'snapshot'
p8
(dp9
S'exception'
p10
(dp11
S'__module__'
p12
S"'sqlite3'"
p13
sS'__getslice__'
p14
S"<method-wrapper '__getslice__' of OperationalError object>"
p15
sS'__str__'
p16
S"<method-wrapper '__str__' of OperationalError object>"
p17
sS'__reduce__'
p18
S'<built-in method __reduce__ of OperationalError object>'
p19
sS'__dict__'
p20
S'{}'
p21
sS'__sizeof__'
p22
S'<built-in method __sizeof__ of OperationalError object>'
p23
sS'__weakref__'
p24
S'None'
p25
sS'__init__'
p26
S"<method-wrapper '__init__' of OperationalError object>"
p27
sS'__setattr__'
p28
S"<method-wrapper '__setattr__' of OperationalError object>"
p29
sS'__reduce_ex__'
p30
S'<built-in method __reduce_ex__ of OperationalError object>'
p31
sS'__new__'
p32
S'<built-in method __new__ of type object>'
p33
sS'__format__'
p34
S'<built-in method __format__ of OperationalError object>'
p35
sS'__class__'
p36
S"<class 'sqlite3.OperationalError'>"
p37
sS'__doc__'
p38
S'None'
p39
sS'__getitem__'
p40
S"<method-wrapper '__getitem__' of OperationalError object>"
p41
sS'__setstate__'
p42
S'<built-in method __setstate__ of OperationalError object>'
p43
sS'__getattribute__'
p44
S"<method-wrapper '__getattribute__' of OperationalError object>"
p45
sS'args'
p46
S"('Cannot add a NOT NULL column with default value NULL',)"
p47
sS'__subclasshook__'
p48
S'<built-in method __subclasshook__ of type object>'
p49
sS'__unicode__'
p50
S'<built-in method __unicode__ of OperationalError object>'
p51
sS'__delattr__'
p52
S"<method-wrapper '__delattr__' of OperationalError object>"
p53
sS'__repr__'
p54
S"<method-wrapper '__repr__' of OperationalError object>"
p55
sS'__hash__'
p56
S"<method-wrapper '__hash__' of OperationalError object>"
p57
ssS'evalue'
p58
S'Cannot add a NOT NULL column with default value NULL'
p59
sS'request'
p60
cgluon.html
XML_unpickle
p61
(S's"^\x00\x00<div><table><tr><td style="font-weight:bold;vertical-align:top;">ajax</td><td style="vertical-align:top;">:</td><td><div>False</div></td></tr><tr><td style="font-weight:bold;vertical-align:top;">application</td><td style="vertical-align:top;">:</td><td><div>eventify</div></td></tr><tr><td style="font-weight:bold;vertical-align:top;">args</td><td style="vertical-align:top;">:</td><td><div><table><tr><td><div>db</div></td></tr><tr><td><div>auth_user</div></td></tr></table></div></td></tr><tr><td style="font-weight:bold;vertical-align:top;">cid</td><td style="vertical-align:top;">:</td><td><div>None</div></td></tr><tr><td style="font-weight:bold;vertical-align:top;">client</td><td style="vertical-align:top;">:</td><td><div>127.0.0.1</div></td></tr><tr><td style="font-weight:bold;vertical-align:top;">controller</td><td style="vertical-align:top;">:</td><td><div>appadmin</div></td></tr><tr><td style="font-weight:bold;vertical-align:top;">cookies</td><td style="vertical-align:top;">:</td><td><div><table><tr><td style="font-weight:bold;vertical-align:top;">session_id_admin</td><td style="vertical-align:top;">:</td><td><div>127.0.0.1-fc20ec17-e8be-43bf-845e-20171d171216<table><tr><td style="font-weight:bold;vertical-align:top;">comment</td><td style="vertical-align:top;">:</td><td><div></div></td></tr><tr><td style="font-weight:bold;vertical-align:top;">domain</td><td style="vertical-align:top;">:</td><td><div></div></td></tr><tr><td style="font-weight:bold;vertical-align:top;">expires</td><td style="vertical-align:top;">:</td><td><div></div></td></tr><tr><td style="font-weight:bold;vertical-align:top;">httponly</td><td style="vertical-align:top;">:</td><td><div></div></td></tr><tr><td style="font-weight:bold;vertical-align:top;">max-age</td><td style="vertical-align:top;">:</td><td><div></div></td></tr><tr><td style="font-weight:bold;vertical-align:top;">path</td><td style="vertical-align:top;">:</td><td><div></div></td></tr><tr><td style="font-weight:bold;vertical-align:top;">secure</td><td style="vertical-align:top;">:</td><td><div></div></td></tr><tr><td style="font-weight:bold;vertical-align:top;">version</td><td style="vertical-align:top;">:</td><td><div></div></td></tr></table></div></td></tr><tr><td style="font-weight:bold;vertical-align:top;">session_id_eventify</td><td style="vertical-align:top;">:</td><td><div>127.0.0.1-59b2f4ba-cf31-4270-985b-f3f21c32bfcb<table><tr><td style="font-weight:bold;vertical-align:top;">comment</td><td style="vertical-align:top;">:</td><td><div></div></td></tr><tr><td style="font-weight:bold;vertical-align:top;">domain</td><td style="vertical-align:top;">:</td><td><div></div></td></tr><tr><td style="font-weight:bold;vertical-align:top;">expires</td><td style="vertical-align:top;">:</td><td><div></div></td></tr><tr><td style="font-weight:bold;vertical-align:top;">httponly</td><td style="vertical-align:top;">:</td><td><div></div></td></tr><tr><td style="font-weight:bold;vertical-align:top;">max-age</td><td style="vertical-align:top;">:</td><td><div></div></td></tr><tr><td style="font-weight:bold;vertical-align:top;">path</td><td style="vertical-align:top;">:</td><td><div></div></td></tr><tr><td style="font-weight:bold;vertical-align:top;">secure</td><td style="vertical-align:top;">:</td><td><div></div></td></tr><tr><td style="font-weight:bold;vertical-align:top;">version</td><td style="vertical-align:top;">:</td><td><div></div></td></tr></table></div></td></tr><tr><td style="font-weight:bold;vertical-align:top;">session_id_welcome</td><td style="vertical-align:top;">:</td><td><div>127.0.0.1-0aa23aba-a049-49bc-976d-5839f33df813<table><tr><td style="font-weight:bold;vertical-align:top;">comment</td><td style="vertical-align:top;">:</td><td><div></div></td></tr><tr><td style="font-weight:bold;vertical-align:top;">domain</td><td style="vertical-align:top;">:</td><td><div></div></td></tr><tr><td style="font-weight:bold;vertical-align:top;">expires</td><td style="vertical-align:top;">:</td><td><div></div></td></tr><tr><td style="font-weight:bold;vertical-align:top;">httponly</td><td style="vertical-align:top;">:</td><td><div></div></td></tr><tr><td style="font-weight:bold;vertical-align:top;">max-age</td><td style="vertical-align:top;">:</td><td><div></div></td></tr><tr><td style="font-weight:bold;vertical-align:top;">path</td><td style="vertical-align:top;">:</td><td><div></div></td></tr><tr><td style="font-weight:bold;vertical-align:top;">secure</td><td style="vertical-align:top;">:</td><td><div></div></td></tr><tr><td style="font-weight:bold;vertical-align:top;">version</td><td style="vertical-align:top;">:</td><td><div></div></td></tr></table></div></td></tr></table></div></td></tr><tr><td style="font-weight:bold;vertical-align:top;">env</td><td style="vertical-align:top;">:</td><td><div><table><tr><td style="font-weight:bold;vertical-align:top;">HTTP_ACCEPT</td><td style="vertical-align:top;">:</td><td><div>text/html,application/xhtml+xml,application/xml;q=0.9,image/webp,*/*;q=0.8</div></td></tr><tr><td style="font-weight:bold;vertical-align:top;">HTTP_ACCEPT_ENCODING</td><td style="vertical-align:top;">:</td><td><div>gzip, deflate, sdch, br</div></td></tr><tr><td style="font-weight:bold;vertical-align:top;">HTTP_ACCEPT_LANGUAGE</td><td style="vertical-align:top;">:</td><td><div>pt-BR,pt;q=0.8,en-US;q=0.6,en;q=0.4,es;q=0.2</div></td></tr><tr><td style="font-weight:bold;vertical-align:top;">HTTP_CACHE_CONTROL</td><td style="vertical-align:top;">:</td><td><div>max-age=0</div></td></tr><tr><td style="font-weight:bold;vertical-align:top;">HTTP_CONNECTION</td><td style="vertical-align:top;">:</td><td><div>keep-alive</div></td></tr><tr><td style="font-weight:bold;vertical-align:top;">HTTP_COOKIE</td><td style="vertical-align:top;">:</td><td><div>session_id_welcome=127.0.0.1-0aa23aba-a049-49bc-976d-5839f33df813; session_id_eventify=127.0.0.1-59b2f4ba-cf31-4270-985b-f3f21c32bfcb; session_id_admin=127.0.0.1-fc20ec17-e8be-43bf-845e-20171d171216</div></td></tr><tr><td style="font-weight:bold;vertical-align:top;">HTTP_HOST</td><td style="vertical-align:top;">:</td><td><div>127.0.0.1:8000</div></td></tr><tr><td style="font-weight:bold;vertical-align:top;">HTTP_REFERER</td><td style="vertical-align:top;">:</td><td><div>http://127.0.0.1:8000/eventify/appadmin/</div></td></tr><tr><td style="font-weight:bold;vertical-align:top;">HTTP_UPGRADE_INSECURE_REQUESTS</td><td style="vertical-align:top;">:</td><td><div>1</div></td></tr><tr><td style="font-weight:bold;vertical-align:top;">HTTP_USER_AGENT</td><td style="vertical-align:top;">:</td><td><div>Mozilla/5.0 (X11; Linux x86_64) AppleWebKit/537.36 (KHTML, like Gecko) Chrome/58.0.3029.81 Safari/537.36</div></td></tr><tr><td style="font-weight:bold;vertical-align:top;">PATH_INFO</td><td style="vertical-align:top;">:</td><td><div>/eventify/appadmin/insert/db/auth_user</div></td></tr><tr><td style="font-weight:bold;vertical-align:top;">QUERY_STRING</td><td style="vertical-align:top;">:</td><td><div></div></td></tr><tr><td style="font-weight:bold;vertical-align:top;">REMOTE_ADDR</td><td style="vertical-align:top;">:</td><td><div>127.0.0.1</div></td></tr><tr><td style="font-weight:bold;vertical-align:top;">REMOTE_PORT</td><td style="vertical-align:top;">:</td><td><div>44718</div></td></tr><tr><td style="font-weight:bold;vertical-align:top;">REQUEST_METHOD</td><td style="vertical-align:top;">:</td><td><div>GET</div></td></tr><tr><td style="font-weight:bold;vertical-align:top;">SCRIPT_NAME</td><td style="vertical-align:top;">:</td><td><div></div></td></tr><tr><td style="font-weight:bold;vertical-align:top;">SERVER_NAME</td><td style="vertical-align:top;">:</td><td><div>leonardo-dutra</div></td></tr><tr><td style="font-weight:bold;vertical-align:top;">SERVER_PORT</td><td style="vertical-align:top;">:</td><td><div>8000</div></td></tr><tr><td style="font-weight:bold;vertical-align:top;">SERVER_PROTOCOL</td><td style="vertical-align:top;">:</td><td><div>HTTP/1.1</div></td></tr><tr><td style="font-weight:bold;vertical-align:top;">SERVER_SOFTWARE</td><td style="vertical-align:top;">:</td><td><div>Rocket 1.2.6</div></td></tr><tr><td style="font-weight:bold;vertical-align:top;">app_folders</td><td style="vertical-align:top;">:</td><td><div>set([&#x27;/home/leonardodutra/workspace/eventify/applications/welcome/&#x27;, &#x27;/home/leonardodutra/workspace/eventify/applications/admin/&#x27;, &#x27;/home/leonardodutra/workspace/eventify/applications/eventify/&#x27;])</div></td></tr><tr><td style="font-weight:bold;vertical-align:top;">applications_parent</td><td style="vertical-align:top;">:</td><td><div>/home/leonardodutra/workspace/eventify</div></td></tr><tr><td style="font-weight:bold;vertical-align:top;">cmd_args</td><td style="vertical-align:top;">:</td><td><div><table></table></div></td></tr><tr><td style="font-weight:bold;vertical-align:top;">cmd_options</td><td style="vertical-align:top;">:</td><td><div>&lt;Values at 0x7fef3d3ba7a0: {&#x27;verbose&#x27;: False, &#x27;ip&#x27;: &#x27;127.0.0.1&#x27;, &#x27;debuglevel&#x27;: 30, &#x27;with_scheduler&#x27;: False, &#x27;shutdown_timeout&#x27;: 5, &#x27;taskbar&#x27;: False, &#x27;with_coverage&#x27;: False, &#x27;pid_filename&#x27;: &#x27;httpserver.pid&#x27;, &#x27;maxthreads&#x27;: None, &#x27;softcron&#x27;: False, &#x27;server_name&#x27;: &#x27;leonardo-dutra&#x27;, &#x27;bpython&#x27;: False, &#x27;nogui&#x27;: False, &#x27;port&#x27;: 8000, &#x27;print_errors&#x27;: False, &#x27;extcron&#x27;: False, &#x27;runcron&#x27;: False, &#x27;run_system_tests&#x27;: False, &#x27;test&#x27;: None, &#x27;folder&#x27;: &#x27;/home/leonardodutra/workspace/eventify&#x27;, &#x27;config&#x27;: &#x27;&#x27;, &#x27;minthreads&#x27;: None, &#x27;shell&#x27;: None, &#x27;run&#x27;: &#x27;&#x27;, &#x27;log_filename&#x27;: &#x27;httpserver.log&#x27;, &#x27;profiler_dir&#x27;: None, &#x27;args&#x27;: [&#x27;&#x27;], &#x27;socket_timeout&#x27;: 5, &#x27;ssl_ca_certificate&#x27;: None, &#x27;scheduler&#x27;: None, &#x27;interfaces&#x27;: None, &#x27;ssl_private_key&#x27;: &#x27;&#x27;, &#x27;gae&#x27;: None, &#x27;password&#x27;: &#x27;******&#x27;, &#x27;request_queue_size&#x27;: 5, &#x27;ssl_certificate&#x27;: &#x27;&#x27;, &#x27;cronjob&#x27;: False, &#x27;numthreads&#x27;: None, &#x27;quiet&#x27;: False, &#x27;import_models&#x27;: False, &#x27;timeout&#x27;: 10, &#x27;plain&#x27;: False, &#x27;nobanner&#x27;: False}&gt;</div></td></tr><tr><td style="font-weight:bold;vertical-align:top;">db_sessions</td><td style="vertical-align:top;">:</td><td><div>set([])</div></td></tr><tr><td style="font-weight:bold;vertical-align:top;">debugging</td><td style="vertical-align:top;">:</td><td><div>False</div></td></tr><tr><td style="font-weight:bold;vertical-align:top;">gluon_parent</td><td style="vertical-align:top;">:</td><td><div>/home/leonardodutra/workspace/eventify</div></td></tr><tr><td style="font-weight:bold;vertical-align:top;">http_accept</td><td style="vertical-align:top;">:</td><td><div>text/html,application/xhtml+xml,application/xml;q=0.9,image/webp,*/*;q=0.8</div></td></tr><tr><td style="font-weight:bold;vertical-align:top;">http_accept_encoding</td><td style="vertical-align:top;">:</td><td><div>gzip, deflate, sdch, br</div></td></tr><tr><td style="font-weight:bold;vertical-align:top;">http_accept_language</td><td style="vertical-align:top;">:</td><td><div>pt-BR,pt;q=0.8,en-US;q=0.6,en;q=0.4,es;q=0.2</div></td></tr><tr><td style="font-weight:bold;vertical-align:top;">http_cache_control</td><td style="vertical-align:top;">:</td><td><div>max-age=0</div></td></tr><tr><td style="font-weight:bold;vertical-align:top;">http_connection</td><td style="vertical-align:top;">:</td><td><div>keep-alive</div></td></tr><tr><td style="font-weight:bold;vertical-align:top;">http_cookie</td><td style="vertical-align:top;">:</td><td><div>session_id_welcome=127.0.0.1-0aa23aba-a049-49bc-976d-5839f33df813; session_id_eventify=127.0.0.1-59b2f4ba-cf31-4270-985b-f3f21c32bfcb; session_id_admin=127.0.0.1-fc20ec17-e8be-43bf-845e-20171d171216</div></td></tr><tr><td style="font-weight:bold;vertical-align:top;">http_host</td><td style="vertical-align:top;">:</td><td><div>127.0.0.1:8000</div></td></tr><tr><td style="font-weight:bold;vertical-align:top;">http_referer</td><td style="vertical-align:top;">:</td><td><div>http://127.0.0.1:8000/eventify/appadmin/</div></td></tr><tr><td style="font-weight:bold;vertical-align:top;">http_upgrade_insecure_requests</td><td style="vertical-align:top;">:</td><td><div>1</div></td></tr><tr><td style="font-weight:bold;vertical-align:top;">http_user_agent</td><td style="vertical-align:top;">:</td><td><div>Mozilla/5.0 (X11; Linux x86_64) AppleWebKit/537.36 (KHTML, like Gecko) Chrome/58.0.3029.81 Safari/537.36</div></td></tr><tr><td style="font-weight:bold;vertical-align:top;">is_jython</td><td style="vertical-align:top;">:</td><td><div>False</div></td></tr><tr><td style="font-weight:bold;vertical-align:top;">is_pypy</td><td style="vertical-align:top;">:</td><td><div>False</div></td></tr><tr><td style="font-weight:bold;vertical-align:top;">is_source</td><td style="vertical-align:top;">:</td><td><div>True</div></td></tr><tr><td style="font-weight:bold;vertical-align:top;">local_hosts</td><td style="vertical-align:top;">:</td><td><div><table><tr><td><div>::1</div></td></tr><tr><td><div>127.0.1.1</div></td></tr><tr><td><div>::ffff:127.0.0.1</div></td></tr><tr><td><div>127.0.0.1</div></td></tr><tr><td><div>leonardo-dutra</div></td></tr></table></div></td></tr><tr><td style="font-weight:bold;vertical-align:top;">path_info</td><td style="vertical-align:top;">:</td><td><div>/eventify/appadmin/insert/db/auth_user</div></td></tr><tr><td style="font-weight:bold;vertical-align:top;">query_string</td><td style="vertical-align:top;">:</td><td><div></div></td></tr><tr><td style="font-weight:bold;vertical-align:top;">remote_addr</td><td style="vertical-align:top;">:</td><td><div>127.0.0.1</div></td></tr><tr><td style="font-weight:bold;vertical-align:top;">remote_port</td><td style="vertical-align:top;">:</td><td><div>44718</div></td></tr><tr><td style="font-weight:bold;vertical-align:top;">request_method</td><td style="vertical-align:top;">:</td><td><div>GET</div></td></tr><tr><td style="font-weight:bold;vertical-align:top;">request_uri</td><td style="vertical-align:top;">:</td><td><div>/eventify/appadmin/insert/db/auth_user</div></td></tr><tr><td style="font-weight:bold;vertical-align:top;">script_name</td><td style="vertical-align:top;">:</td><td><div></div></td></tr><tr><td style="font-weight:bold;vertical-align:top;">server_name</td><td style="vertical-align:top;">:</td><td><div>leonardo-dutra</div></td></tr><tr><td style="font-weight:bold;vertical-align:top;">server_port</td><td style="vertical-align:top;">:</td><td><div>8000</div></td></tr><tr><td style="font-weight:bold;vertical-align:top;">server_protocol</td><td style="vertical-align:top;">:</td><td><div>HTTP/1.1</div></td></tr><tr><td style="font-weight:bold;vertical-align:top;">server_software</td><td style="vertical-align:top;">:</td><td><div>Rocket 1.2.6</div></td></tr><tr><td style="font-weight:bold;vertical-align:top;">web2py_path</td><td style="vertical-align:top;">:</td><td><div>/home/leonardodutra/workspace/eventify</div></td></tr><tr><td style="font-weight:bold;vertical-align:top;">web2py_version</td><td style="vertical-align:top;">:</td><td><div>2.14.6-stable+timestamp.2016.05.10.00.21.47</div></td></tr><tr><td style="font-weight:bold;vertical-align:top;">wsgi.errors</td><td style="vertical-align:top;">:</td><td><div>&lt;open file &#x27;&lt;stderr&gt;&#x27;, mode &#x27;w&#x27; at 0x7fef460fc1e0&gt;</div></td></tr><tr><td style="font-weight:bold;vertical-align:top;">wsgi.file_wrapper</td><td style="vertical-align:top;">:</td><td><div>&lt;class wsgiref.util.FileWrapper at 0x7fef3cf71598&gt;</div></td></tr><tr><td style="font-weight:bold;vertical-align:top;">wsgi.input</td><td style="vertical-align:top;">:</td><td><div>&lt;socket._fileobject object at 0x7fef0c499e50&gt;</div></td></tr><tr><td style="font-weight:bold;vertical-align:top;">wsgi.multiprocess</td><td style="vertical-align:top;">:</td><td><div>False</div></td></tr><tr><td style="font-weight:bold;vertical-align:top;">wsgi.multithread</td><td style="vertical-align:top;">:</td><td><div>True</div></td></tr><tr><td style="font-weight:bold;vertical-align:top;">wsgi.run_once</td><td style="vertical-align:top;">:</td><td><div>False</div></td></tr><tr><td style="font-weight:bold;vertical-align:top;">wsgi.url_scheme</td><td style="vertical-align:top;">:</td><td><div>http</div></td></tr><tr><td style="font-weight:bold;vertical-align:top;">wsgi.version</td><td style="vertical-align:top;">:</td><td><div><table><tr><td><div>1</div></td></tr><tr><td><div>0</div></td></tr></table></div></td></tr><tr><td style="font-weight:bold;vertical-align:top;">wsgi_errors</td><td style="vertical-align:top;">:</td><td><div>&lt;open file &#x27;&lt;stderr&gt;&#x27;, mode &#x27;w&#x27; at 0x7fef460fc1e0&gt;</div></td></tr><tr><td style="font-weight:bold;vertical-align:top;">wsgi_file_wrapper</td><td style="vertical-align:top;">:</td><td><div>&lt;class wsgiref.util.FileWrapper at 0x7fef3cf71598&gt;</div></td></tr><tr><td style="font-weight:bold;vertical-align:top;">wsgi_input</td><td style="vertical-align:top;">:</td><td><div>&lt;socket._fileobject object at 0x7fef0c499e50&gt;</div></td></tr><tr><td style="font-weight:bold;vertical-align:top;">wsgi_multiprocess</td><td style="vertical-align:top;">:</td><td><div>False</div></td></tr><tr><td style="font-weight:bold;vertical-align:top;">wsgi_multithread</td><td style="vertical-align:top;">:</td><td><div>True</div></td></tr><tr><td style="font-weight:bold;vertical-align:top;">wsgi_run_once</td><td style="vertical-align:top;">:</td><td><div>False</div></td></tr><tr><td style="font-weight:bold;vertical-align:top;">wsgi_url_scheme</td><td style="vertical-align:top;">:</td><td><div>http</div></td></tr><tr><td style="font-weight:bold;vertical-align:top;">wsgi_version</td><td style="vertical-align:top;">:</td><td><div><table><tr><td><div>1</div></td></tr><tr><td><div>0</div></td></tr></table></div></td></tr></table></div></td></tr><tr><td style="font-weight:bold;vertical-align:top;">extension</td><td style="vertical-align:top;">:</td><td><div>html</div></td></tr><tr><td style="font-weight:bold;vertical-align:top;">folder</td><td style="vertical-align:top;">:</td><td><div>/home/leonardodutra/workspace/eventify/applications/eventify/</div></td></tr><tr><td style="font-weight:bold;vertical-align:top;">function</td><td style="vertical-align:top;">:</td><td><div>insert</div></td></tr><tr><td style="font-weight:bold;vertical-align:top;">global_settings</td><td style="vertical-align:top;">:</td><td><div><table><tr><td style="font-weight:bold;vertical-align:top;">app_folders</td><td style="vertical-align:top;">:</td><td><div>set([&#x27;/home/leonardodutra/workspace/eventify/applications/welcome/&#x27;, &#x27;/home/leonardodutra/workspace/eventify/applications/admin/&#x27;, &#x27;/home/leonardodutra/workspace/eventify/applications/eventify/&#x27;])</div></td></tr><tr><td style="font-weight:bold;vertical-align:top;">applications_parent</td><td style="vertical-align:top;">:</td><td><div>/home/leonardodutra/workspace/eventify</div></td></tr><tr><td style="font-weight:bold;vertical-align:top;">cmd_args</td><td style="vertical-align:top;">:</td><td><div><table></table></div></td></tr><tr><td style="font-weight:bold;vertical-align:top;">cmd_options</td><td style="vertical-align:top;">:</td><td><div>&lt;Values at 0x7fef3d3ba7a0: {&#x27;verbose&#x27;: False, &#x27;ip&#x27;: &#x27;127.0.0.1&#x27;, &#x27;debuglevel&#x27;: 30, &#x27;with_scheduler&#x27;: False, &#x27;shutdown_timeout&#x27;: 5, &#x27;taskbar&#x27;: False, &#x27;with_coverage&#x27;: False, &#x27;pid_filename&#x27;: &#x27;httpserver.pid&#x27;, &#x27;maxthreads&#x27;: None, &#x27;softcron&#x27;: False, &#x27;server_name&#x27;: &#x27;leonardo-dutra&#x27;, &#x27;bpython&#x27;: False, &#x27;nogui&#x27;: False, &#x27;port&#x27;: 8000, &#x27;print_errors&#x27;: False, &#x27;extcron&#x27;: False, &#x27;runcron&#x27;: False, &#x27;run_system_tests&#x27;: False, &#x27;test&#x27;: None, &#x27;folder&#x27;: &#x27;/home/leonardodutra/workspace/eventify&#x27;, &#x27;config&#x27;: &#x27;&#x27;, &#x27;minthreads&#x27;: None, &#x27;shell&#x27;: None, &#x27;run&#x27;: &#x27;&#x27;, &#x27;log_filename&#x27;: &#x27;httpserver.log&#x27;, &#x27;profiler_dir&#x27;: None, &#x27;args&#x27;: [&#x27;&#x27;], &#x27;socket_timeout&#x27;: 5, &#x27;ssl_ca_certificate&#x27;: None, &#x27;scheduler&#x27;: None, &#x27;interfaces&#x27;: None, &#x27;ssl_private_key&#x27;: &#x27;&#x27;, &#x27;gae&#x27;: None, &#x27;password&#x27;: &#x27;******&#x27;, &#x27;request_queue_size&#x27;: 5, &#x27;ssl_certificate&#x27;: &#x27;&#x27;, &#x27;cronjob&#x27;: False, &#x27;numthreads&#x27;: None, &#x27;quiet&#x27;: False, &#x27;import_models&#x27;: False, &#x27;timeout&#x27;: 10, &#x27;plain&#x27;: False, &#x27;nobanner&#x27;: False}&gt;</div></td></tr><tr><td style="font-weight:bold;vertical-align:top;">db_sessions</td><td style="vertical-align:top;">:</td><td><div>set([])</div></td></tr><tr><td style="font-weight:bold;vertical-align:top;">debugging</td><td style="vertical-align:top;">:</td><td><div>False</div></td></tr><tr><td style="font-weight:bold;vertical-align:top;">gluon_parent</td><td style="vertical-align:top;">:</td><td><div>/home/leonardodutra/workspace/eventify</div></td></tr><tr><td style="font-weight:bold;vertical-align:top;">is_jython</td><td style="vertical-align:top;">:</td><td><div>False</div></td></tr><tr><td style="font-weight:bold;vertical-align:top;">is_pypy</td><td style="vertical-align:top;">:</td><td><div>False</div></td></tr><tr><td style="font-weight:bold;vertical-align:top;">is_source</td><td style="vertical-align:top;">:</td><td><div>True</div></td></tr><tr><td style="font-weight:bold;vertical-align:top;">local_hosts</td><td style="vertical-align:top;">:</td><td><div><table><tr><td><div>::1</div></td></tr><tr><td><div>127.0.1.1</div></td></tr><tr><td><div>::ffff:127.0.0.1</div></td></tr><tr><td><div>127.0.0.1</div></td></tr><tr><td><div>leonardo-dutra</div></td></tr></table></div></td></tr><tr><td style="font-weight:bold;vertical-align:top;">web2py_version</td><td style="vertical-align:top;">:</td><td><div>2.14.6-stable+timestamp.2016.05.10.00.21.47</div></td></tr></table></div></td></tr><tr><td style="font-weight:bold;vertical-align:top;">is_https</td><td style="vertical-align:top;">:</td><td><div>False</div></td></tr><tr><td style="font-weight:bold;vertical-align:top;">is_local</td><td style="vertical-align:top;">:</td><td><div>True</div></td></tr><tr><td style="font-weight:bold;vertical-align:top;">is_restful</td><td style="vertical-align:top;">:</td><td><div>False</div></td></tr><tr><td style="font-weight:bold;vertical-align:top;">is_scheduler</td><td style="vertical-align:top;">:</td><td><div>False</div></td></tr><tr><td style="font-weight:bold;vertical-align:top;">is_shell</td><td style="vertical-align:top;">:</td><td><div>False</div></td></tr><tr><td style="font-weight:bold;vertical-align:top;">now</td><td style="vertical-align:top;">:</td><td><div>datetime.datetime(2017, 11, 16, 22, 9, 52, 619801)</div></td></tr><tr><td style="font-weight:bold;vertical-align:top;">raw_args</td><td style="vertical-align:top;">:</td><td><div>db/auth_user</div></td></tr><tr><td style="font-weight:bold;vertical-align:top;">raw_extension</td><td style="vertical-align:top;">:</td><td><div>None</div></td></tr><tr><td style="font-weight:bold;vertical-align:top;">url</td><td style="vertical-align:top;">:</td><td><div>/eventify/appadmin/insert/db/auth_user</div></td></tr><tr><td style="font-weight:bold;vertical-align:top;">utcnow</td><td style="vertical-align:top;">:</td><td><div>datetime.datetime(2017, 11, 17, 1, 9, 52, 619837)</div></td></tr><tr><td style="font-weight:bold;vertical-align:top;">wsgi</td><td style="vertical-align:top;">:</td><td><div>&lt;gluon.main.LazyWSGI object at 0x7fef0cdf5610&gt;</div></td></tr></table></div>'
tRp62
sS'frames'
p63
(lp64
(dp65
S'file'
p66
S'/home/leonardodutra/workspace/eventify/gluon/restricted.py'
p67
sS'dump'
p68
(dp69
S'environment'
p70
S"{'A': <class 'gluon.html.A'>, 'ANY_OF': <class 'gluon.validators.ANY_OF'>, 'ASSIGNJS': <function ASSIGNJS>, 'AppConfig': <function AppConfig>, 'Auth': <class 'gluon.tools.Auth'>, 'B': <class 'gluon.html.B'>, 'BEAUTIFY': <class 'gluon.html.BEAUTIFY'>, 'BODY': <class 'gluon.html.BODY'>, 'BR': <class 'gluon.html.BR'>, 'BUTTON': <class 'gluon.html.BUTTON'>, ...}"
p71
sS'ccode'
p72
S'<code object <module> at 0x7fef0cf50030, file "/...tify/applications/eventify/models/db.py", line 8>'
p73
ssS'lnum'
p74
I227
sS'lines'
p75
(dp76
I224
S'            ccode = code'
p77
sI225
S'        else:'
p78
sI226
S'            ccode = compile2(code, layer)'
p79
sI227
S'        exec ccode in environment'
p80
sI228
S'    except HTTP:'
p81
sI229
S'        raise'
p82
sI230
S'    except RestrictedError:'
p83
sI231
S'        # do not encapsulate (obfuscate) the original RestrictedError'
p84
sI222
S'    try:'
p85
sI223
S'        if isinstance(code, types.CodeType):'
p86
ssS'call'
p87
S"(code='# -*- coding: utf-8 -*-\\n\\n# ---------------------...------------\\n# auth.enable_record_versioning(db)\\n', environment={'A': <class 'gluon.html.A'>, 'ANY_OF': <class 'gluon.validators.ANY_OF'>, 'ASSIGNJS': <function ASSIGNJS>, 'AppConfig': <function AppConfig>, 'Auth': <class 'gluon.tools.Auth'>, 'B': <class 'gluon.html.B'>, 'BEAUTIFY': <class 'gluon.html.BEAUTIFY'>, 'BODY': <class 'gluon.html.BODY'>, 'BR': <class 'gluon.html.BR'>, 'BUTTON': <class 'gluon.html.BUTTON'>, ...}, layer='/home/leonardodutra/workspace/eventify/applications/eventify/models/db.py')"
p88
sS'func'
p89
S'restricted'
p90
sa(dp91
g66
S'/home/leonardodutra/workspace/eventify/applications/eventify/models/db.py'
p92
sg68
(dp93
S'username'
p94
S'undefined'
p95
sS'auth.define_tables'
p96
S'<bound method Auth.define_tables of <gluon.tools.Auth object>>'
p97
sS'builtinFalse'
p98
S'False'
p99
sS'auth'
p100
S'<gluon.tools.Auth object>'
p101
sS'signature'
p102
g95
ssg74
I98
sg75
(dp103
I96
S'# create all tables needed by auth if not custom tables'
p104
sI97
S'# -------------------------------------------------------------------------'
p105
sI98
S'auth.define_tables(username=False, signature=False)'
p106
sI99
S''
sI100
S'# -------------------------------------------------------------------------'
p107
sI101
S'# configure email'
p108
sI102
S'# -------------------------------------------------------------------------'
p109
sI93
S"    Field('tipo', 'string', label=T('Tipo de Cadastro'), requires=IS_IN_SET(('Pesquisador', 'Gradua\xc3\xa7\xc3\xa3o', 'P\xc3\xb3s-gradua\xc3\xa7\xc3\xa3o'))),"
p110
sI94
S'    ]'
p111
sI95
S'# -------------------------------------------------------------------------'
p112
ssg87
S'()'
p113
sg89
S'<module>'
p114
sa(dp115
g66
S'/home/leonardodutra/workspace/eventify/gluon/tools.py'
p116
sg68
(dp117
S'builtinformat'
p118
S'<built-in function format>'
p119
ssg74
I2376
sg75
(dp120
I2371
S'                    *extra_fields,'
p121
sI2372
S'                    **dict('
p122
sI2373
S'                        migrate=self.__get_migrate(settings.table_user_name,'
p123
sI2374
S'                                                   migrate),'
p124
sI2375
S'                        fake_migrate=fake_migrate,'
p125
sI2376
S"                        format='%(first_name)s %(last_name)s (%(id)s)'))"
p126
sI2377
S"        reference_table_user = 'reference %s' % settings.table_user_name"
p127
sI2378
S'        if settings.table_group_name not in db.tables:'
p128
sI2379
S'            extra_fields = settings.extra_fields.get('
p129
sI2380
S'                settings.table_group_name, []) + signature_list'
p130
ssg87
S'(self=<gluon.tools.Auth object>, username=False, signature=False, enable_tokens=False, migrate=True, fake_migrate=False)'
p131
sg89
S'define_tables'
p132
sa(dp133
g66
S'/home/leonardodutra/workspace/eventify/gluon/packages/dal/pydal/base.py'
p134
sg68
(dp135
S'fields'
p136
S'(<pydal.objects.Field object>, <pydal.objects.Field object>, <pydal.objects.Field object>, <pydal.objects.Field object>, <pydal.objects.Field object>, <pydal.objects.Field object>, <pydal.objects.Field object>, <pydal.objects.Field object>, <pydal.objects.Field object>)'
p137
sS'self'
p138
S'<DAL uri="sqlite://storage.sqlite">'
p139
sS'args'
p140
S"{'fake_migrate': False, 'format': '%(first_name)s %(last_name)s (%(id)s)', 'migrate': True}"
p141
sS'tablename'
p142
S"'auth_user'"
p143
sS'table'
p144
g95
sS'self.lazy_define_table'
p145
S'<bound method DAL.lazy_define_table of <DAL uri="sqlite://storage.sqlite">>'
p146
ssg74
I834
sg75
(dp147
I832
S'            table = None'
p148
sI833
S'        else:'
p149
sI834
S'            table = self.lazy_define_table(tablename,*fields,**args)'
p150
sI835
S'        if not tablename in self.tables:'
p151
sI836
S'            self.tables.append(tablename)'
p152
sI837
S'        return table'
p153
sI838
S''
sI829
S'                    % (tablename,invalid_args))'
p154
sI830
S'        if self._lazy_tables and tablename not in self._LAZY_TABLES:'
p155
sI831
S'            self._LAZY_TABLES[tablename] = (tablename,fields,args)'
p156
ssg87
S'(self=<DAL uri="sqlite://storage.sqlite">, tablename=\'auth_user\', *fields=(<pydal.objects.Field object>, <pydal.objects.Field object>, <pydal.objects.Field object>, <pydal.objects.Field object>, <pydal.objects.Field object>, <pydal.objects.Field object>, <pydal.objects.Field object>, <pydal.objects.Field object>, <pydal.objects.Field object>), **args={\'fake_migrate\': False, \'format\': \'%(first_name)s %(last_name)s (%(id)s)\', \'migrate\': True})'
p157
sg89
S'define_table'
p158
sa(dp159
g66
S'/home/leonardodutra/workspace/eventify/gluon/packages/dal/pydal/base.py'
p160
sg68
(dp161
S'polymodel'
p162
S'None'
p163
ssg74
I873
sg75
(dp164
I868
S'            try:'
p165
sI869
S'                GLOBAL_LOCKER.acquire()'
p166
sI870
S'                self._lastsql = self._adapter.create_table('
p167
sI871
S'                    table,migrate=migrate,'
p168
sI872
S'                    fake_migrate=fake_migrate,'
p169
sI873
S'                    polymodel=polymodel)'
p170
sI874
S'            finally:'
p171
sI875
S'                GLOBAL_LOCKER.release()'
p172
sI876
S'        else:'
p173
sI877
S'            table._dbt = None'
p174
ssg87
S'(self=<DAL uri="sqlite://storage.sqlite">, tablename=\'auth_user\', *fields=(<pydal.objects.Field object>, <pydal.objects.Field object>, <pydal.objects.Field object>, <pydal.objects.Field object>, <pydal.objects.Field object>, <pydal.objects.Field object>, <pydal.objects.Field object>, <pydal.objects.Field object>, <pydal.objects.Field object>), **args={\'fake_migrate\': False, \'format\': \'%(first_name)s %(last_name)s (%(id)s)\', \'migrate\': True})'
p175
sg89
S'lazy_define_table'
p176
sa(dp177
g66
S'/home/leonardodutra/workspace/eventify/gluon/packages/dal/pydal/adapters/base.py'
p178
sg68
(dp179
S'fake_migrate'
p180
g99
ssg74
I510
sg75
(dp181
I512
S'        return query'
p182
sI513
S''
sI514
S'    def migrate_table('
p183
sI505
S'            if sql_fields != sql_fields_old:'
p184
sI506
S'                self.migrate_table('
p185
sI507
S'                    table,'
p186
sI508
S'                    sql_fields, sql_fields_old,'
p187
sI509
S'                    sql_fields_aux, None,'
p188
sI510
S'                    fake_migrate=fake_migrate'
p189
sI511
S'                    )'
p190
ssg87
S'(self=<pydal.adapters.sqlite.SQLiteAdapter object>, table=<Table auth_user (id, first_name, last_name, ema...assword_key, registration_id, instituicao, tipo)>, migrate=True, fake_migrate=False, polymodel=None)'
p191
sg89
S'create_table'
p192
sa(dp193
g66
S'/home/leonardodutra/workspace/eventify/gluon/packages/dal/pydal/adapters/base.py'
p194
sg68
(dp195
S'self'
p196
S'<pydal.adapters.sqlite.SQLiteAdapter object>'
p197
sS'self.execute'
p198
S'<bound method SQLiteAdapter.execute of <pydal.adapters.sqlite.SQLiteAdapter object>>'
p199
sS'sub_query'
p200
S"'ALTER TABLE auth_user ADD instituicao CHAR(100) NOT NULL;'"
p201
ssg74
I623
sg75
(dp202
I618
S'                    if fake_migrate:'
p203
sI619
S'                        if db._adapter.commit_on_alter_table:'
p204
sI620
S'                            self.save_dbt(table,sql_fields_current)'
p205
sI621
S"                        self.log('faked!\\n', table)"
p206
sI622
S'                    else:'
p207
sI623
S'                        self.execute(sub_query)'
p208
sI624
S'                        # Caveat: mysql, oracle and firebird'
p209
sI625
S'                        # do not allow multiple alter table'
p210
sI626
S'                        # in one transaction so we must commit'
p211
sI627
S'                        # partial transactions and'
p212
ssg87
S"(self=<pydal.adapters.sqlite.SQLiteAdapter object>, table=<Table auth_user (id, first_name, last_name, ema...assword_key, registration_id, instituicao, tipo)>, sql_fields={'email': {'length': 512, 'notnull': False, 'sortable': 4, 'sql': 'CHAR(512)', 'type': 'string', 'unique': False}, 'first_name': {'length': 128, 'notnull': False, 'sortable': 2, 'sql': 'CHAR(128)', 'type': 'string', 'unique': False}, 'id': {'length': 512, 'notnull': False, 'sortable': 1, 'sql': 'INTEGER PRIMARY KEY AUTOINCREMENT', 'type': 'id', 'unique': False}, 'instituicao': {'length': 100, 'notnull': True, 'sortable': 9, 'sql': 'CHAR(100) NOT NULL', 'type': 'string', 'unique': False}, 'last_name': {'length': 128, 'notnull': False, 'sortable': 3, 'sql': 'CHAR(128)', 'type': 'string', 'unique': False}, 'password': {'length': 512, 'notnull': False, 'sortable': 5, 'sql': 'CHAR(512)', 'type': 'password', 'unique': False}, 'registration_id': {'length': 512, 'notnull': False, 'sortable': 8, 'sql': 'CHAR(512)', 'type': 'string', 'unique': False}, 'registration_key': {'length': 512, 'notnull': False, 'sortable': 6, 'sql': 'CHAR(512)', 'type': 'string', 'unique': False}, 'reset_password_key': {'length': 512, 'notnull': False, 'sortable': 7, 'sql': 'CHAR(512)', 'type': 'string', 'unique': False}, 'tipo': {'length': 512, 'notnull': False, 'sortable': 10, 'sql': 'CHAR(512)', 'type': 'string', 'unique': False}}, sql_fields_old={'email': {'length': 512, 'notnull': False, 'sortable': 4, 'sql': 'CHAR(512)', 'type': 'string', 'unique': False}, 'first_name': {'length': 128, 'notnull': False, 'sortable': 2, 'sql': 'CHAR(128)', 'type': 'string', 'unique': False}, 'id': {'length': 512, 'notnull': False, 'sortable': 1, 'sql': 'INTEGER PRIMARY KEY AUTOINCREMENT', 'type': 'id', 'unique': False}, 'last_name': {'length': 128, 'notnull': False, 'sortable': 3, 'sql': 'CHAR(128)', 'type': 'string', 'unique': False}, 'password': {'length': 512, 'notnull': False, 'sortable': 5, 'sql': 'CHAR(512)', 'type': 'password', 'unique': False}, 'registration_id': {'length': 512, 'notnull': False, 'sortable': 8, 'sql': 'CHAR(512)', 'type': 'string', 'unique': False}, 'registration_key': {'length': 512, 'notnull': False, 'sortable': 6, 'sql': 'CHAR(512)', 'type': 'string', 'unique': False}, 'reset_password_key': {'length': 512, 'notnull': False, 'sortable': 7, 'sql': 'CHAR(512)', 'type': 'string', 'unique': False}}, sql_fields_aux={'email': {'sql': 'CHAR(512)'}, 'first_name': {'sql': 'CHAR(128)'}, 'id': {'sql': 'INTEGER PRIMARY KEY AUTOINCREMENT'}, 'instituicao': {'sql': 'CHAR(100) NOT NULL'}, 'last_name': {'sql': 'CHAR(128)'}, 'password': {'sql': 'CHAR(512)'}, 'registration_id': {'sql': 'CHAR(512)'}, 'registration_key': {'sql': 'CHAR(512)'}, 'reset_password_key': {'sql': 'CHAR(512)'}, 'tipo': {'sql': 'CHAR(512)'}}, logfile=None, fake_migrate=False)"
p213
sg89
S'migrate_table'
p214
sa(dp215
g66
S'/home/leonardodutra/workspace/eventify/gluon/packages/dal/pydal/adapters/base.py'
p216
sg68
(dp217
S'a'
S"('ALTER TABLE auth_user ADD instituicao CHAR(100) NOT NULL;',)"
p218
sS'self'
p219
S'<pydal.adapters.sqlite.SQLiteAdapter object>'
p220
sS'b'
g21
sS'self.log_execute'
p221
S'<bound method SQLiteAdapter.log_execute of <pydal.adapters.sqlite.SQLiteAdapter object>>'
p222
ssg74
I1388
sg75
(dp223
I1383
S'        self.db._timings.append((command,time.time()-t0))'
p224
sI1384
S'        del self.db._timings[:-TIMINGSSIZE]'
p225
sI1385
S'        return ret'
p226
sI1386
S''
sI1387
S'    def execute(self, *a, **b):'
p227
sI1388
S'        return self.log_execute(*a, **b)'
p228
sI1389
S''
sI1390
S'    def execute_test_query(self):'
p229
sI1391
S'        return self.execute(self.test_query)'
p230
sI1392
S''
ssg87
S"(self=<pydal.adapters.sqlite.SQLiteAdapter object>, *a=('ALTER TABLE auth_user ADD instituicao CHAR(100) NOT NULL;',), **b={})"
p231
sg89
S'execute'
p232
sa(dp233
g66
S'/home/leonardodutra/workspace/eventify/gluon/packages/dal/pydal/adapters/base.py'
p234
sg68
(dp235
S'a'
S"('ALTER TABLE auth_user ADD instituicao CHAR(100) NOT NULL;',)"
p236
sS'b'
g21
sS'self'
p237
S'<pydal.adapters.sqlite.SQLiteAdapter object>'
p238
sS'ret'
p239
g95
sS'command'
p240
S"'ALTER TABLE auth_user ADD instituicao CHAR(100) NOT NULL;'"
p241
sS'self.get_cursor'
p242
S'<bound method SQLiteAdapter.get_cursor of <pydal.adapters.sqlite.SQLiteAdapter object>>'
p243
sS').execute'
p244
g95
ssg74
I1382
sg75
(dp245
I1377
S'            command = self.filter_sql_command(command)'
p246
sI1378
S'        if self.db._debug:'
p247
sI1379
S"            self.db.logger.debug('SQL: %s' % command)"
p248
sI1380
S'        self.db._lastsql = command'
p249
sI1381
S'        t0 = time.time()'
p250
sI1382
S'        ret = self.get_cursor().execute(command, *a[1:], **b)'
p251
sI1383
S'        self.db._timings.append((command,time.time()-t0))'
p252
sI1384
S'        del self.db._timings[:-TIMINGSSIZE]'
p253
sI1385
S'        return ret'
p254
sI1386
S''
ssg87
S"(self=<pydal.adapters.sqlite.SQLiteAdapter object>, *a=('ALTER TABLE auth_user ADD instituicao CHAR(100) NOT NULL;',), **b={})"
p255
sg89
S'log_execute'
p256
sasS'pyver'
p257
S'Python 2.7.6: /usr/bin/python2 (prefix: /usr)'
p258
sS'session'
p259
g61
(S's:\x01\x00\x00<div><table><tr><td style="font-weight:bold;vertical-align:top;">last_orderby</td><td style="vertical-align:top;">:</td><td><div>None</div></td></tr><tr><td style="font-weight:bold;vertical-align:top;">last_query</td><td style="vertical-align:top;">:</td><td><div>db.auth_user.id&gt;0</div></td></tr></table></div>'
tRp260
sS'etype'
p261
S"<class 'sqlite3.OperationalError'>"
p262
sS'date'
p263
S'Thu Nov 16 22:09:52 2017'
p264
sS'response'
p265
g61
(S's\x95\x17\x00\x00<div><table><tr><td style="font-weight:bold;vertical-align:top;">body</td><td style="vertical-align:top;">:</td><td><div>&lt;cStringIO.StringO object at 0x7fef30200d18&gt;</div></td></tr><tr><td style="font-weight:bold;vertical-align:top;">cookies</td><td style="vertical-align:top;">:</td><td><div><table><tr><td style="font-weight:bold;vertical-align:top;">session_id_eventify</td><td style="vertical-align:top;">:</td><td><div>127.0.0.1-59b2f4ba-cf31-4270-985b-f3f21c32bfcb<table><tr><td style="font-weight:bold;vertical-align:top;">comment</td><td style="vertical-align:top;">:</td><td><div></div></td></tr><tr><td style="font-weight:bold;vertical-align:top;">domain</td><td style="vertical-align:top;">:</td><td><div></div></td></tr><tr><td style="font-weight:bold;vertical-align:top;">expires</td><td style="vertical-align:top;">:</td><td><div></div></td></tr><tr><td style="font-weight:bold;vertical-align:top;">httponly</td><td style="vertical-align:top;">:</td><td><div></div></td></tr><tr><td style="font-weight:bold;vertical-align:top;">max-age</td><td style="vertical-align:top;">:</td><td><div></div></td></tr><tr><td style="font-weight:bold;vertical-align:top;">path</td><td style="vertical-align:top;">:</td><td><div>/</div></td></tr><tr><td style="font-weight:bold;vertical-align:top;">secure</td><td style="vertical-align:top;">:</td><td><div></div></td></tr><tr><td style="font-weight:bold;vertical-align:top;">version</td><td style="vertical-align:top;">:</td><td><div></div></td></tr></table></div></td></tr></table></div></td></tr><tr><td style="font-weight:bold;vertical-align:top;">delimiters</td><td style="vertical-align:top;">:</td><td><div><table><tr><td><div>{{</div></td></tr><tr><td><div>}}</div></td></tr></table></div></td></tr><tr><td style="font-weight:bold;vertical-align:top;">files</td><td style="vertical-align:top;">:</td><td><div><table></table></div></td></tr><tr><td style="font-weight:bold;vertical-align:top;">flash</td><td style="vertical-align:top;">:</td><td><div></div></td></tr><tr><td style="font-weight:bold;vertical-align:top;">form_label_separator</td><td style="vertical-align:top;">:</td><td><div></div></td></tr><tr><td style="font-weight:bold;vertical-align:top;">formstyle</td><td style="vertical-align:top;">:</td><td><div>bootstrap3_inline</div></td></tr><tr><td style="font-weight:bold;vertical-align:top;">generic_patterns</td><td style="vertical-align:top;">:</td><td><div><table><tr><td><div>*</div></td></tr></table></div></td></tr><tr><td style="font-weight:bold;vertical-align:top;">headers</td><td style="vertical-align:top;">:</td><td><div><table><tr><td style="font-weight:bold;vertical-align:top;">X-Powered-By</td><td style="vertical-align:top;">:</td><td><div>web2py</div></td></tr></table></div></td></tr><tr><td style="font-weight:bold;vertical-align:top;">menu</td><td style="vertical-align:top;">:</td><td><div><table></table></div></td></tr><tr><td style="font-weight:bold;vertical-align:top;">meta</td><td style="vertical-align:top;">:</td><td><div><table></table></div></td></tr><tr><td style="font-weight:bold;vertical-align:top;">models_to_run</td><td style="vertical-align:top;">:</td><td><div><table><tr><td><div>^\\w+\\.py$</div></td></tr><tr><td><div>^appadmin/\\w+\\.py$</div></td></tr><tr><td><div>^appadmin/insert/\\w+\\.py$</div></td></tr></table></div></td></tr><tr><td style="font-weight:bold;vertical-align:top;">postprocessing</td><td style="vertical-align:top;">:</td><td><div><table></table></div></td></tr><tr><td style="font-weight:bold;vertical-align:top;">session_client</td><td style="vertical-align:top;">:</td><td><div>127.0.0.1</div></td></tr><tr><td style="font-weight:bold;vertical-align:top;">session_cookie_compression_level</td><td style="vertical-align:top;">:</td><td><div>None</div></td></tr><tr><td style="font-weight:bold;vertical-align:top;">session_cookie_expires</td><td style="vertical-align:top;">:</td><td><div>None</div></td></tr><tr><td style="font-weight:bold;vertical-align:top;">session_data_name</td><td style="vertical-align:top;">:</td><td><div>session_data_eventify</div></td></tr><tr><td style="font-weight:bold;vertical-align:top;">session_file</td><td style="vertical-align:top;">:</td><td><div>&lt;open file &#x27;/home/leonardodutra/workspace/eventify/applications/eventify/sessions/15a/07b/127.0.0.1-59b2f4ba-cf31-4270-985b-f3f21c32bfcb&#x27;, mode &#x27;rb+&#x27; at 0x7fef302cf300&gt;</div></td></tr><tr><td style="font-weight:bold;vertical-align:top;">session_filename</td><td style="vertical-align:top;">:</td><td><div>/home/leonardodutra/workspace/eventify/applications/eventify/sessions/127.0.0.1-59b2f4ba-cf31-4270-985b-f3f21c32bfcb</div></td></tr><tr><td style="font-weight:bold;vertical-align:top;">session_hash</td><td style="vertical-align:top;">:</td><td><div>5509c5fbfe865b6739fbe0888d9e157b</div></td></tr><tr><td style="font-weight:bold;vertical-align:top;">session_id</td><td style="vertical-align:top;">:</td><td><div>127.0.0.1-59b2f4ba-cf31-4270-985b-f3f21c32bfcb</div></td></tr><tr><td style="font-weight:bold;vertical-align:top;">session_id_name</td><td style="vertical-align:top;">:</td><td><div>session_id_eventify</div></td></tr><tr><td style="font-weight:bold;vertical-align:top;">session_locked</td><td style="vertical-align:top;">:</td><td><div>True</div></td></tr><tr><td style="font-weight:bold;vertical-align:top;">session_masterapp</td><td style="vertical-align:top;">:</td><td><div>eventify</div></td></tr><tr><td style="font-weight:bold;vertical-align:top;">session_new</td><td style="vertical-align:top;">:</td><td><div>False</div></td></tr><tr><td style="font-weight:bold;vertical-align:top;">session_storage_type</td><td style="vertical-align:top;">:</td><td><div>file</div></td></tr><tr><td style="font-weight:bold;vertical-align:top;">status</td><td style="vertical-align:top;">:</td><td><div>200</div></td></tr><tr><td style="font-weight:bold;vertical-align:top;">view</td><td style="vertical-align:top;">:</td><td><div>appadmin/insert.html</div></td></tr></table></div>'
tRp266
sS'locals'
p267
(dp268
S'a'
S"('ALTER TABLE auth_user ADD instituicao CHAR(100) NOT NULL;',)"
p269
sS'self'
p270
S'<pydal.adapters.sqlite.SQLiteAdapter object>'
p271
sS'b'
g21
sS'command'
p272
S"'ALTER TABLE auth_user ADD instituicao CHAR(100) NOT NULL;'"
p273
sS't0'
p274
S'1510880992.888409'
p275
sssS'traceback'
p276
S'Traceback (most recent call last):\n  File "/home/leonardodutra/workspace/eventify/gluon/restricted.py", line 227, in restricted\n    exec ccode in environment\n  File "/home/leonardodutra/workspace/eventify/applications/eventify/models/db.py", line 98, in <module>\n    auth.define_tables(username=False, signature=False)\n  File "/home/leonardodutra/workspace/eventify/gluon/tools.py", line 2376, in define_tables\n    format=\'%(first_name)s %(last_name)s (%(id)s)\'))\n  File "/home/leonardodutra/workspace/eventify/gluon/packages/dal/pydal/base.py", line 834, in define_table\n    table = self.lazy_define_table(tablename,*fields,**args)\n  File "/home/leonardodutra/workspace/eventify/gluon/packages/dal/pydal/base.py", line 873, in lazy_define_table\n    polymodel=polymodel)\n  File "/home/leonardodutra/workspace/eventify/gluon/packages/dal/pydal/adapters/base.py", line 510, in create_table\n    fake_migrate=fake_migrate\n  File "/home/leonardodutra/workspace/eventify/gluon/packages/dal/pydal/adapters/base.py", line 623, in migrate_table\n    self.execute(sub_query)\n  File "/home/leonardodutra/workspace/eventify/gluon/packages/dal/pydal/adapters/base.py", line 1388, in execute\n    return self.log_execute(*a, **b)\n  File "/home/leonardodutra/workspace/eventify/gluon/packages/dal/pydal/adapters/base.py", line 1382, in log_execute\n    ret = self.get_cursor().execute(command, *a[1:], **b)\nOperationalError: Cannot add a NOT NULL column with default value NULL\n'
p277
s.