(dp1
S'output'
p2
S"<class 'sqlite3.OperationalError'> Cannot add a NOT NULL column with default value NULL"
p3
sS'layer'
p4
S'/home/leonardodutra/workspace/eventify/applications/eventify/models/dba.py'
p5
sS'code'
p6
S"from applications.eventify.modules.countries import *\nimport datetime\n\ndb.define_table(\n    'conferencia',\n    Field('nome','string',label=T('Nome da Confer\xc3\xaancia'), notnull=True),\n    Field('sigla','string', label=T('Sigla da Confer\xc3\xaancia'),notnull=True),\n    Field('pais', 'string', label=T('Pa\xc3\xads'), requires=IS_IN_SET(COUNTRIES)),\n    Field('data_inicio', 'date',label=T('Data de In\xc3\xadcio'), requires=IS_DATE(format='%d-%m-%Y')),\n    Field('data_fim', 'date',label=T('Data de T\xc3\xa9rmino'), requires=IS_DATE(format='%d-%m-%Y')))\n\ndb.define_table(\n\t'artigo',\n\tField('titulo', 'string', label=T('T\xc3\xadtulo do Artigo'), notnull=True),\n\tField('autor', 'string', label=T('Autor'), notnull=True),\n\tField('autor2', 'string', label=T('Autor'), notnull=True),\n\tField('autor3', 'string', label=T('Autor'), notnull=True),\n\tField('email', 'string', label=T('E-mail'), notnull=True),\n\tField('email2', 'string', label=T('E-mail')),\n\tField('email3', 'string', label=T('E-mail')),\n\tField('keywords', 'string', label=T('Palavras-chave (separar por v\xc3\xadrgula)')),\n\tField('resumo', 'text', label=T('Resumo do Artigo')),\n\tField('arquivo', 'upload', label=T('Upload'), notnull=True))\n"
p7
sS'snapshot'
p8
(dp9
S'exception'
p10
(dp11
S'__module__'
p12
S"'sqlite3'"
p13
sS'__getslice__'
p14
S"<method-wrapper '__getslice__' of OperationalError object>"
p15
sS'__str__'
p16
S"<method-wrapper '__str__' of OperationalError object>"
p17
sS'__reduce__'
p18
S'<built-in method __reduce__ of OperationalError object>'
p19
sS'__dict__'
p20
S'{}'
p21
sS'__sizeof__'
p22
S'<built-in method __sizeof__ of OperationalError object>'
p23
sS'__weakref__'
p24
S'None'
p25
sS'__init__'
p26
S"<method-wrapper '__init__' of OperationalError object>"
p27
sS'__setattr__'
p28
S"<method-wrapper '__setattr__' of OperationalError object>"
p29
sS'__reduce_ex__'
p30
S'<built-in method __reduce_ex__ of OperationalError object>'
p31
sS'__new__'
p32
S'<built-in method __new__ of type object>'
p33
sS'__format__'
p34
S'<built-in method __format__ of OperationalError object>'
p35
sS'__class__'
p36
S"<class 'sqlite3.OperationalError'>"
p37
sS'__doc__'
p38
S'None'
p39
sS'__getitem__'
p40
S"<method-wrapper '__getitem__' of OperationalError object>"
p41
sS'__setstate__'
p42
S'<built-in method __setstate__ of OperationalError object>'
p43
sS'__getattribute__'
p44
S"<method-wrapper '__getattribute__' of OperationalError object>"
p45
sS'args'
p46
S"('Cannot add a NOT NULL column with default value NULL',)"
p47
sS'__subclasshook__'
p48
S'<built-in method __subclasshook__ of type object>'
p49
sS'__unicode__'
p50
S'<built-in method __unicode__ of OperationalError object>'
p51
sS'__delattr__'
p52
S"<method-wrapper '__delattr__' of OperationalError object>"
p53
sS'__repr__'
p54
S"<method-wrapper '__repr__' of OperationalError object>"
p55
sS'__hash__'
p56
S"<method-wrapper '__hash__' of OperationalError object>"
p57
ssS'evalue'
p58
S'Cannot add a NOT NULL column with default value NULL'
p59
sS'request'
p60
cgluon.html
XML_unpickle
p61
(S's\xd3i\x00\x00<div><table><tr><td style="font-weight:bold;vertical-align:top;">ajax</td><td style="vertical-align:top;">:</td><td><div>False</div></td></tr><tr><td style="font-weight:bold;vertical-align:top;">application</td><td style="vertical-align:top;">:</td><td><div>eventify</div></td></tr><tr><td style="font-weight:bold;vertical-align:top;">args</td><td style="vertical-align:top;">:</td><td><div><table><tr><td><div>db</div></td></tr></table></div></td></tr><tr><td style="font-weight:bold;vertical-align:top;">cid</td><td style="vertical-align:top;">:</td><td><div>None</div></td></tr><tr><td style="font-weight:bold;vertical-align:top;">client</td><td style="vertical-align:top;">:</td><td><div>127.0.0.1</div></td></tr><tr><td style="font-weight:bold;vertical-align:top;">controller</td><td style="vertical-align:top;">:</td><td><div>appadmin</div></td></tr><tr><td style="font-weight:bold;vertical-align:top;">cookies</td><td style="vertical-align:top;">:</td><td><div><table><tr><td style="font-weight:bold;vertical-align:top;">session_id_admin</td><td style="vertical-align:top;">:</td><td><div>127.0.0.1-f2b19e85-4031-4dac-9b1a-c10d3e145129<table><tr><td style="font-weight:bold;vertical-align:top;">comment</td><td style="vertical-align:top;">:</td><td><div></div></td></tr><tr><td style="font-weight:bold;vertical-align:top;">domain</td><td style="vertical-align:top;">:</td><td><div></div></td></tr><tr><td style="font-weight:bold;vertical-align:top;">expires</td><td style="vertical-align:top;">:</td><td><div></div></td></tr><tr><td style="font-weight:bold;vertical-align:top;">httponly</td><td style="vertical-align:top;">:</td><td><div></div></td></tr><tr><td style="font-weight:bold;vertical-align:top;">max-age</td><td style="vertical-align:top;">:</td><td><div></div></td></tr><tr><td style="font-weight:bold;vertical-align:top;">path</td><td style="vertical-align:top;">:</td><td><div></div></td></tr><tr><td style="font-weight:bold;vertical-align:top;">secure</td><td style="vertical-align:top;">:</td><td><div></div></td></tr><tr><td style="font-weight:bold;vertical-align:top;">version</td><td style="vertical-align:top;">:</td><td><div></div></td></tr></table></div></td></tr><tr><td style="font-weight:bold;vertical-align:top;">session_id_eventify</td><td style="vertical-align:top;">:</td><td><div>127.0.0.1-df89416c-2653-452c-b9a7-6848f668c6fd<table><tr><td style="font-weight:bold;vertical-align:top;">comment</td><td style="vertical-align:top;">:</td><td><div></div></td></tr><tr><td style="font-weight:bold;vertical-align:top;">domain</td><td style="vertical-align:top;">:</td><td><div></div></td></tr><tr><td style="font-weight:bold;vertical-align:top;">expires</td><td style="vertical-align:top;">:</td><td><div></div></td></tr><tr><td style="font-weight:bold;vertical-align:top;">httponly</td><td style="vertical-align:top;">:</td><td><div></div></td></tr><tr><td style="font-weight:bold;vertical-align:top;">max-age</td><td style="vertical-align:top;">:</td><td><div></div></td></tr><tr><td style="font-weight:bold;vertical-align:top;">path</td><td style="vertical-align:top;">:</td><td><div></div></td></tr><tr><td style="font-weight:bold;vertical-align:top;">secure</td><td style="vertical-align:top;">:</td><td><div></div></td></tr><tr><td style="font-weight:bold;vertical-align:top;">version</td><td style="vertical-align:top;">:</td><td><div></div></td></tr></table></div></td></tr><tr><td style="font-weight:bold;vertical-align:top;">session_id_teste</td><td style="vertical-align:top;">:</td><td><div>127.0.0.1-924c543c-5482-4b89-9bce-edcbac00da7c<table><tr><td style="font-weight:bold;vertical-align:top;">comment</td><td style="vertical-align:top;">:</td><td><div></div></td></tr><tr><td style="font-weight:bold;vertical-align:top;">domain</td><td style="vertical-align:top;">:</td><td><div></div></td></tr><tr><td style="font-weight:bold;vertical-align:top;">expires</td><td style="vertical-align:top;">:</td><td><div></div></td></tr><tr><td style="font-weight:bold;vertical-align:top;">httponly</td><td style="vertical-align:top;">:</td><td><div></div></td></tr><tr><td style="font-weight:bold;vertical-align:top;">max-age</td><td style="vertical-align:top;">:</td><td><div></div></td></tr><tr><td style="font-weight:bold;vertical-align:top;">path</td><td style="vertical-align:top;">:</td><td><div></div></td></tr><tr><td style="font-weight:bold;vertical-align:top;">secure</td><td style="vertical-align:top;">:</td><td><div></div></td></tr><tr><td style="font-weight:bold;vertical-align:top;">version</td><td style="vertical-align:top;">:</td><td><div></div></td></tr></table></div></td></tr><tr><td style="font-weight:bold;vertical-align:top;">session_id_welcome</td><td style="vertical-align:top;">:</td><td><div>127.0.0.1-fe92edc5-2af1-423b-94c5-8b4a5b20f668<table><tr><td style="font-weight:bold;vertical-align:top;">comment</td><td style="vertical-align:top;">:</td><td><div></div></td></tr><tr><td style="font-weight:bold;vertical-align:top;">domain</td><td style="vertical-align:top;">:</td><td><div></div></td></tr><tr><td style="font-weight:bold;vertical-align:top;">expires</td><td style="vertical-align:top;">:</td><td><div></div></td></tr><tr><td style="font-weight:bold;vertical-align:top;">httponly</td><td style="vertical-align:top;">:</td><td><div></div></td></tr><tr><td style="font-weight:bold;vertical-align:top;">max-age</td><td style="vertical-align:top;">:</td><td><div></div></td></tr><tr><td style="font-weight:bold;vertical-align:top;">path</td><td style="vertical-align:top;">:</td><td><div></div></td></tr><tr><td style="font-weight:bold;vertical-align:top;">secure</td><td style="vertical-align:top;">:</td><td><div></div></td></tr><tr><td style="font-weight:bold;vertical-align:top;">version</td><td style="vertical-align:top;">:</td><td><div></div></td></tr></table></div></td></tr><tr><td style="font-weight:bold;vertical-align:top;">username-localhost-8888</td><td style="vertical-align:top;">:</td><td><div>2|1:0|10:1509755661|23:username-localhost-8888|44:Mzg4ZDlmZjBhNTM4NDhiMWFmOTc4YTRiYzgyMDFjYjY=|62553150d1192c8c0c7bac396f72cab373fe4469619d5f289109a0857eb9640f<table><tr><td style="font-weight:bold;vertical-align:top;">comment</td><td style="vertical-align:top;">:</td><td><div></div></td></tr><tr><td style="font-weight:bold;vertical-align:top;">domain</td><td style="vertical-align:top;">:</td><td><div></div></td></tr><tr><td style="font-weight:bold;vertical-align:top;">expires</td><td style="vertical-align:top;">:</td><td><div></div></td></tr><tr><td style="font-weight:bold;vertical-align:top;">httponly</td><td style="vertical-align:top;">:</td><td><div></div></td></tr><tr><td style="font-weight:bold;vertical-align:top;">max-age</td><td style="vertical-align:top;">:</td><td><div></div></td></tr><tr><td style="font-weight:bold;vertical-align:top;">path</td><td style="vertical-align:top;">:</td><td><div></div></td></tr><tr><td style="font-weight:bold;vertical-align:top;">secure</td><td style="vertical-align:top;">:</td><td><div></div></td></tr><tr><td style="font-weight:bold;vertical-align:top;">version</td><td style="vertical-align:top;">:</td><td><div></div></td></tr></table></div></td></tr></table></div></td></tr><tr><td style="font-weight:bold;vertical-align:top;">env</td><td style="vertical-align:top;">:</td><td><div><table><tr><td style="font-weight:bold;vertical-align:top;">HTTP_ACCEPT</td><td style="vertical-align:top;">:</td><td><div>text/html,application/xhtml+xml,application/xml;q=0.9,image/webp,*/*;q=0.8</div></td></tr><tr><td style="font-weight:bold;vertical-align:top;">HTTP_ACCEPT_ENCODING</td><td style="vertical-align:top;">:</td><td><div>gzip, deflate, sdch, br</div></td></tr><tr><td style="font-weight:bold;vertical-align:top;">HTTP_ACCEPT_LANGUAGE</td><td style="vertical-align:top;">:</td><td><div>pt-BR,pt;q=0.8,en-US;q=0.6,en;q=0.4,es;q=0.2</div></td></tr><tr><td style="font-weight:bold;vertical-align:top;">HTTP_CACHE_CONTROL</td><td style="vertical-align:top;">:</td><td><div>no-cache</div></td></tr><tr><td style="font-weight:bold;vertical-align:top;">HTTP_CONNECTION</td><td style="vertical-align:top;">:</td><td><div>keep-alive</div></td></tr><tr><td style="font-weight:bold;vertical-align:top;">HTTP_COOKIE</td><td style="vertical-align:top;">:</td><td><div>username-localhost-8888=&quot;2|1:0|10:1509755661|23:username-localhost-8888|44:Mzg4ZDlmZjBhNTM4NDhiMWFmOTc4YTRiYzgyMDFjYjY=|62553150d1192c8c0c7bac396f72cab373fe4469619d5f289109a0857eb9640f&quot;; session_id_welcome=127.0.0.1-fe92edc5-2af1-423b-94c5-8b4a5b20f668; session_id_eventify=127.0.0.1-df89416c-2653-452c-b9a7-6848f668c6fd; session_id_admin=127.0.0.1-f2b19e85-4031-4dac-9b1a-c10d3e145129; session_id_teste=127.0.0.1-924c543c-5482-4b89-9bce-edcbac00da7c</div></td></tr><tr><td style="font-weight:bold;vertical-align:top;">HTTP_HOST</td><td style="vertical-align:top;">:</td><td><div>localhost:8000</div></td></tr><tr><td style="font-weight:bold;vertical-align:top;">HTTP_PRAGMA</td><td style="vertical-align:top;">:</td><td><div>no-cache</div></td></tr><tr><td style="font-weight:bold;vertical-align:top;">HTTP_UPGRADE_INSECURE_REQUESTS</td><td style="vertical-align:top;">:</td><td><div>1</div></td></tr><tr><td style="font-weight:bold;vertical-align:top;">HTTP_USER_AGENT</td><td style="vertical-align:top;">:</td><td><div>Mozilla/5.0 (X11; Linux x86_64) AppleWebKit/537.36 (KHTML, like Gecko) Chrome/58.0.3029.81 Safari/537.36</div></td></tr><tr><td style="font-weight:bold;vertical-align:top;">PATH_INFO</td><td style="vertical-align:top;">:</td><td><div>/eventify/appadmin/select/db</div></td></tr><tr><td style="font-weight:bold;vertical-align:top;">QUERY_STRING</td><td style="vertical-align:top;">:</td><td><div>query=db.artigo.id%3E0</div></td></tr><tr><td style="font-weight:bold;vertical-align:top;">REMOTE_ADDR</td><td style="vertical-align:top;">:</td><td><div>127.0.0.1</div></td></tr><tr><td style="font-weight:bold;vertical-align:top;">REMOTE_PORT</td><td style="vertical-align:top;">:</td><td><div>51716</div></td></tr><tr><td style="font-weight:bold;vertical-align:top;">REQUEST_METHOD</td><td style="vertical-align:top;">:</td><td><div>GET</div></td></tr><tr><td style="font-weight:bold;vertical-align:top;">SCRIPT_NAME</td><td style="vertical-align:top;">:</td><td><div></div></td></tr><tr><td style="font-weight:bold;vertical-align:top;">SERVER_NAME</td><td style="vertical-align:top;">:</td><td><div>leonardo-dutra</div></td></tr><tr><td style="font-weight:bold;vertical-align:top;">SERVER_PORT</td><td style="vertical-align:top;">:</td><td><div>8000</div></td></tr><tr><td style="font-weight:bold;vertical-align:top;">SERVER_PROTOCOL</td><td style="vertical-align:top;">:</td><td><div>HTTP/1.1</div></td></tr><tr><td style="font-weight:bold;vertical-align:top;">SERVER_SOFTWARE</td><td style="vertical-align:top;">:</td><td><div>Rocket 1.2.6</div></td></tr><tr><td style="font-weight:bold;vertical-align:top;">app_folders</td><td style="vertical-align:top;">:</td><td><div>set([&#x27;/home/leonardodutra/workspace/eventify/applications/welcome/&#x27;, &#x27;/home/leonardodutra/workspace/eventify/applications/admin/&#x27;, &#x27;/home/leonardodutra/workspace/eventify/applications/eventify/&#x27;])</div></td></tr><tr><td style="font-weight:bold;vertical-align:top;">applications_parent</td><td style="vertical-align:top;">:</td><td><div>/home/leonardodutra/workspace/eventify</div></td></tr><tr><td style="font-weight:bold;vertical-align:top;">cmd_args</td><td style="vertical-align:top;">:</td><td><div><table></table></div></td></tr><tr><td style="font-weight:bold;vertical-align:top;">cmd_options</td><td style="vertical-align:top;">:</td><td><div>&lt;Values at 0x7fae1a41a758: {&#x27;verbose&#x27;: False, &#x27;ip&#x27;: &#x27;127.0.0.1&#x27;, &#x27;debuglevel&#x27;: 30, &#x27;with_scheduler&#x27;: False, &#x27;shutdown_timeout&#x27;: 5, &#x27;taskbar&#x27;: False, &#x27;with_coverage&#x27;: False, &#x27;pid_filename&#x27;: &#x27;httpserver.pid&#x27;, &#x27;maxthreads&#x27;: None, &#x27;softcron&#x27;: False, &#x27;server_name&#x27;: &#x27;leonardo-dutra&#x27;, &#x27;bpython&#x27;: False, &#x27;nogui&#x27;: False, &#x27;port&#x27;: 8000, &#x27;print_errors&#x27;: False, &#x27;extcron&#x27;: False, &#x27;runcron&#x27;: False, &#x27;run_system_tests&#x27;: False, &#x27;test&#x27;: None, &#x27;folder&#x27;: &#x27;/home/leonardodutra/workspace/eventify&#x27;, &#x27;config&#x27;: &#x27;&#x27;, &#x27;minthreads&#x27;: None, &#x27;shell&#x27;: None, &#x27;run&#x27;: &#x27;&#x27;, &#x27;log_filename&#x27;: &#x27;httpserver.log&#x27;, &#x27;profiler_dir&#x27;: None, &#x27;args&#x27;: [&#x27;&#x27;], &#x27;socket_timeout&#x27;: 5, &#x27;ssl_ca_certificate&#x27;: None, &#x27;scheduler&#x27;: None, &#x27;interfaces&#x27;: None, &#x27;ssl_private_key&#x27;: &#x27;&#x27;, &#x27;gae&#x27;: None, &#x27;password&#x27;: &#x27;******&#x27;, &#x27;request_queue_size&#x27;: 5, &#x27;ssl_certificate&#x27;: &#x27;&#x27;, &#x27;cronjob&#x27;: False, &#x27;numthreads&#x27;: None, &#x27;quiet&#x27;: False, &#x27;import_models&#x27;: False, &#x27;timeout&#x27;: 10, &#x27;plain&#x27;: False, &#x27;nobanner&#x27;: False}&gt;</div></td></tr><tr><td style="font-weight:bold;vertical-align:top;">db_sessions</td><td style="vertical-align:top;">:</td><td><div>set([])</div></td></tr><tr><td style="font-weight:bold;vertical-align:top;">debugging</td><td style="vertical-align:top;">:</td><td><div>False</div></td></tr><tr><td style="font-weight:bold;vertical-align:top;">gluon_parent</td><td style="vertical-align:top;">:</td><td><div>/home/leonardodutra/workspace/eventify</div></td></tr><tr><td style="font-weight:bold;vertical-align:top;">http_accept</td><td style="vertical-align:top;">:</td><td><div>text/html,application/xhtml+xml,application/xml;q=0.9,image/webp,*/*;q=0.8</div></td></tr><tr><td style="font-weight:bold;vertical-align:top;">http_accept_encoding</td><td style="vertical-align:top;">:</td><td><div>gzip, deflate, sdch, br</div></td></tr><tr><td style="font-weight:bold;vertical-align:top;">http_accept_language</td><td style="vertical-align:top;">:</td><td><div>pt-BR,pt;q=0.8,en-US;q=0.6,en;q=0.4,es;q=0.2</div></td></tr><tr><td style="font-weight:bold;vertical-align:top;">http_cache_control</td><td style="vertical-align:top;">:</td><td><div>no-cache</div></td></tr><tr><td style="font-weight:bold;vertical-align:top;">http_connection</td><td style="vertical-align:top;">:</td><td><div>keep-alive</div></td></tr><tr><td style="font-weight:bold;vertical-align:top;">http_cookie</td><td style="vertical-align:top;">:</td><td><div>username-localhost-8888=&quot;2|1:0|10:1509755661|23:username-localhost-8888|44:Mzg4ZDlmZjBhNTM4NDhiMWFmOTc4YTRiYzgyMDFjYjY=|62553150d1192c8c0c7bac396f72cab373fe4469619d5f289109a0857eb9640f&quot;; session_id_welcome=127.0.0.1-fe92edc5-2af1-423b-94c5-8b4a5b20f668; session_id_eventify=127.0.0.1-df89416c-2653-452c-b9a7-6848f668c6fd; session_id_admin=127.0.0.1-f2b19e85-4031-4dac-9b1a-c10d3e145129; session_id_teste=127.0.0.1-924c543c-5482-4b89-9bce-edcbac00da7c</div></td></tr><tr><td style="font-weight:bold;vertical-align:top;">http_host</td><td style="vertical-align:top;">:</td><td><div>localhost:8000</div></td></tr><tr><td style="font-weight:bold;vertical-align:top;">http_pragma</td><td style="vertical-align:top;">:</td><td><div>no-cache</div></td></tr><tr><td style="font-weight:bold;vertical-align:top;">http_upgrade_insecure_requests</td><td style="vertical-align:top;">:</td><td><div>1</div></td></tr><tr><td style="font-weight:bold;vertical-align:top;">http_user_agent</td><td style="vertical-align:top;">:</td><td><div>Mozilla/5.0 (X11; Linux x86_64) AppleWebKit/537.36 (KHTML, like Gecko) Chrome/58.0.3029.81 Safari/537.36</div></td></tr><tr><td style="font-weight:bold;vertical-align:top;">is_jython</td><td style="vertical-align:top;">:</td><td><div>False</div></td></tr><tr><td style="font-weight:bold;vertical-align:top;">is_pypy</td><td style="vertical-align:top;">:</td><td><div>False</div></td></tr><tr><td style="font-weight:bold;vertical-align:top;">is_source</td><td style="vertical-align:top;">:</td><td><div>True</div></td></tr><tr><td style="font-weight:bold;vertical-align:top;">local_hosts</td><td style="vertical-align:top;">:</td><td><div><table><tr><td><div>::1</div></td></tr><tr><td><div>127.0.1.1</div></td></tr><tr><td><div>::ffff:127.0.0.1</div></td></tr><tr><td><div>127.0.0.1</div></td></tr><tr><td><div>leonardo-dutra</div></td></tr></table></div></td></tr><tr><td style="font-weight:bold;vertical-align:top;">path_info</td><td style="vertical-align:top;">:</td><td><div>/eventify/appadmin/select/db</div></td></tr><tr><td style="font-weight:bold;vertical-align:top;">query_string</td><td style="vertical-align:top;">:</td><td><div>query=db.artigo.id%3E0</div></td></tr><tr><td style="font-weight:bold;vertical-align:top;">remote_addr</td><td style="vertical-align:top;">:</td><td><div>127.0.0.1</div></td></tr><tr><td style="font-weight:bold;vertical-align:top;">remote_port</td><td style="vertical-align:top;">:</td><td><div>51716</div></td></tr><tr><td style="font-weight:bold;vertical-align:top;">request_method</td><td style="vertical-align:top;">:</td><td><div>GET</div></td></tr><tr><td style="font-weight:bold;vertical-align:top;">request_uri</td><td style="vertical-align:top;">:</td><td><div>/eventify/appadmin/select/db?query=db.artigo.id%3E0</div></td></tr><tr><td style="font-weight:bold;vertical-align:top;">script_name</td><td style="vertical-align:top;">:</td><td><div></div></td></tr><tr><td style="font-weight:bold;vertical-align:top;">server_name</td><td style="vertical-align:top;">:</td><td><div>leonardo-dutra</div></td></tr><tr><td style="font-weight:bold;vertical-align:top;">server_port</td><td style="vertical-align:top;">:</td><td><div>8000</div></td></tr><tr><td style="font-weight:bold;vertical-align:top;">server_protocol</td><td style="vertical-align:top;">:</td><td><div>HTTP/1.1</div></td></tr><tr><td style="font-weight:bold;vertical-align:top;">server_software</td><td style="vertical-align:top;">:</td><td><div>Rocket 1.2.6</div></td></tr><tr><td style="font-weight:bold;vertical-align:top;">web2py_path</td><td style="vertical-align:top;">:</td><td><div>/home/leonardodutra/workspace/eventify</div></td></tr><tr><td style="font-weight:bold;vertical-align:top;">web2py_version</td><td style="vertical-align:top;">:</td><td><div>2.14.6-stable+timestamp.2016.05.10.00.21.47</div></td></tr><tr><td style="font-weight:bold;vertical-align:top;">wsgi.errors</td><td style="vertical-align:top;">:</td><td><div>&lt;open file &#x27;&lt;stderr&gt;&#x27;, mode &#x27;w&#x27; at 0x7fae2315b1e0&gt;</div></td></tr><tr><td style="font-weight:bold;vertical-align:top;">wsgi.file_wrapper</td><td style="vertical-align:top;">:</td><td><div>&lt;class wsgiref.util.FileWrapper at 0x7fae19f45598&gt;</div></td></tr><tr><td style="font-weight:bold;vertical-align:top;">wsgi.input</td><td style="vertical-align:top;">:</td><td><div>&lt;socket._fileobject object at 0x7fae1a026750&gt;</div></td></tr><tr><td style="font-weight:bold;vertical-align:top;">wsgi.multiprocess</td><td style="vertical-align:top;">:</td><td><div>False</div></td></tr><tr><td style="font-weight:bold;vertical-align:top;">wsgi.multithread</td><td style="vertical-align:top;">:</td><td><div>True</div></td></tr><tr><td style="font-weight:bold;vertical-align:top;">wsgi.run_once</td><td style="vertical-align:top;">:</td><td><div>False</div></td></tr><tr><td style="font-weight:bold;vertical-align:top;">wsgi.url_scheme</td><td style="vertical-align:top;">:</td><td><div>http</div></td></tr><tr><td style="font-weight:bold;vertical-align:top;">wsgi.version</td><td style="vertical-align:top;">:</td><td><div><table><tr><td><div>1</div></td></tr><tr><td><div>0</div></td></tr></table></div></td></tr><tr><td style="font-weight:bold;vertical-align:top;">wsgi_errors</td><td style="vertical-align:top;">:</td><td><div>&lt;open file &#x27;&lt;stderr&gt;&#x27;, mode &#x27;w&#x27; at 0x7fae2315b1e0&gt;</div></td></tr><tr><td style="font-weight:bold;vertical-align:top;">wsgi_file_wrapper</td><td style="vertical-align:top;">:</td><td><div>&lt;class wsgiref.util.FileWrapper at 0x7fae19f45598&gt;</div></td></tr><tr><td style="font-weight:bold;vertical-align:top;">wsgi_input</td><td style="vertical-align:top;">:</td><td><div>&lt;socket._fileobject object at 0x7fae1a026750&gt;</div></td></tr><tr><td style="font-weight:bold;vertical-align:top;">wsgi_multiprocess</td><td style="vertical-align:top;">:</td><td><div>False</div></td></tr><tr><td style="font-weight:bold;vertical-align:top;">wsgi_multithread</td><td style="vertical-align:top;">:</td><td><div>True</div></td></tr><tr><td style="font-weight:bold;vertical-align:top;">wsgi_run_once</td><td style="vertical-align:top;">:</td><td><div>False</div></td></tr><tr><td style="font-weight:bold;vertical-align:top;">wsgi_url_scheme</td><td style="vertical-align:top;">:</td><td><div>http</div></td></tr><tr><td style="font-weight:bold;vertical-align:top;">wsgi_version</td><td style="vertical-align:top;">:</td><td><div><table><tr><td><div>1</div></td></tr><tr><td><div>0</div></td></tr></table></div></td></tr></table></div></td></tr><tr><td style="font-weight:bold;vertical-align:top;">extension</td><td style="vertical-align:top;">:</td><td><div>html</div></td></tr><tr><td style="font-weight:bold;vertical-align:top;">folder</td><td style="vertical-align:top;">:</td><td><div>/home/leonardodutra/workspace/eventify/applications/eventify/</div></td></tr><tr><td style="font-weight:bold;vertical-align:top;">function</td><td style="vertical-align:top;">:</td><td><div>select</div></td></tr><tr><td style="font-weight:bold;vertical-align:top;">global_settings</td><td style="vertical-align:top;">:</td><td><div><table><tr><td style="font-weight:bold;vertical-align:top;">app_folders</td><td style="vertical-align:top;">:</td><td><div>set([&#x27;/home/leonardodutra/workspace/eventify/applications/welcome/&#x27;, &#x27;/home/leonardodutra/workspace/eventify/applications/admin/&#x27;, &#x27;/home/leonardodutra/workspace/eventify/applications/eventify/&#x27;])</div></td></tr><tr><td style="font-weight:bold;vertical-align:top;">applications_parent</td><td style="vertical-align:top;">:</td><td><div>/home/leonardodutra/workspace/eventify</div></td></tr><tr><td style="font-weight:bold;vertical-align:top;">cmd_args</td><td style="vertical-align:top;">:</td><td><div><table></table></div></td></tr><tr><td style="font-weight:bold;vertical-align:top;">cmd_options</td><td style="vertical-align:top;">:</td><td><div>&lt;Values at 0x7fae1a41a758: {&#x27;verbose&#x27;: False, &#x27;ip&#x27;: &#x27;127.0.0.1&#x27;, &#x27;debuglevel&#x27;: 30, &#x27;with_scheduler&#x27;: False, &#x27;shutdown_timeout&#x27;: 5, &#x27;taskbar&#x27;: False, &#x27;with_coverage&#x27;: False, &#x27;pid_filename&#x27;: &#x27;httpserver.pid&#x27;, &#x27;maxthreads&#x27;: None, &#x27;softcron&#x27;: False, &#x27;server_name&#x27;: &#x27;leonardo-dutra&#x27;, &#x27;bpython&#x27;: False, &#x27;nogui&#x27;: False, &#x27;port&#x27;: 8000, &#x27;print_errors&#x27;: False, &#x27;extcron&#x27;: False, &#x27;runcron&#x27;: False, &#x27;run_system_tests&#x27;: False, &#x27;test&#x27;: None, &#x27;folder&#x27;: &#x27;/home/leonardodutra/workspace/eventify&#x27;, &#x27;config&#x27;: &#x27;&#x27;, &#x27;minthreads&#x27;: None, &#x27;shell&#x27;: None, &#x27;run&#x27;: &#x27;&#x27;, &#x27;log_filename&#x27;: &#x27;httpserver.log&#x27;, &#x27;profiler_dir&#x27;: None, &#x27;args&#x27;: [&#x27;&#x27;], &#x27;socket_timeout&#x27;: 5, &#x27;ssl_ca_certificate&#x27;: None, &#x27;scheduler&#x27;: None, &#x27;interfaces&#x27;: None, &#x27;ssl_private_key&#x27;: &#x27;&#x27;, &#x27;gae&#x27;: None, &#x27;password&#x27;: &#x27;******&#x27;, &#x27;request_queue_size&#x27;: 5, &#x27;ssl_certificate&#x27;: &#x27;&#x27;, &#x27;cronjob&#x27;: False, &#x27;numthreads&#x27;: None, &#x27;quiet&#x27;: False, &#x27;import_models&#x27;: False, &#x27;timeout&#x27;: 10, &#x27;plain&#x27;: False, &#x27;nobanner&#x27;: False}&gt;</div></td></tr><tr><td style="font-weight:bold;vertical-align:top;">db_sessions</td><td style="vertical-align:top;">:</td><td><div>set([])</div></td></tr><tr><td style="font-weight:bold;vertical-align:top;">debugging</td><td style="vertical-align:top;">:</td><td><div>False</div></td></tr><tr><td style="font-weight:bold;vertical-align:top;">gluon_parent</td><td style="vertical-align:top;">:</td><td><div>/home/leonardodutra/workspace/eventify</div></td></tr><tr><td style="font-weight:bold;vertical-align:top;">is_jython</td><td style="vertical-align:top;">:</td><td><div>False</div></td></tr><tr><td style="font-weight:bold;vertical-align:top;">is_pypy</td><td style="vertical-align:top;">:</td><td><div>False</div></td></tr><tr><td style="font-weight:bold;vertical-align:top;">is_source</td><td style="vertical-align:top;">:</td><td><div>True</div></td></tr><tr><td style="font-weight:bold;vertical-align:top;">local_hosts</td><td style="vertical-align:top;">:</td><td><div><table><tr><td><div>::1</div></td></tr><tr><td><div>127.0.1.1</div></td></tr><tr><td><div>::ffff:127.0.0.1</div></td></tr><tr><td><div>127.0.0.1</div></td></tr><tr><td><div>leonardo-dutra</div></td></tr></table></div></td></tr><tr><td style="font-weight:bold;vertical-align:top;">web2py_version</td><td style="vertical-align:top;">:</td><td><div>2.14.6-stable+timestamp.2016.05.10.00.21.47</div></td></tr></table></div></td></tr><tr><td style="font-weight:bold;vertical-align:top;">is_https</td><td style="vertical-align:top;">:</td><td><div>False</div></td></tr><tr><td style="font-weight:bold;vertical-align:top;">is_local</td><td style="vertical-align:top;">:</td><td><div>True</div></td></tr><tr><td style="font-weight:bold;vertical-align:top;">is_restful</td><td style="vertical-align:top;">:</td><td><div>False</div></td></tr><tr><td style="font-weight:bold;vertical-align:top;">is_scheduler</td><td style="vertical-align:top;">:</td><td><div>False</div></td></tr><tr><td style="font-weight:bold;vertical-align:top;">is_shell</td><td style="vertical-align:top;">:</td><td><div>False</div></td></tr><tr><td style="font-weight:bold;vertical-align:top;">now</td><td style="vertical-align:top;">:</td><td><div>datetime.datetime(2017, 11, 26, 22, 10, 36, 373808)</div></td></tr><tr><td style="font-weight:bold;vertical-align:top;">raw_args</td><td style="vertical-align:top;">:</td><td><div>db</div></td></tr><tr><td style="font-weight:bold;vertical-align:top;">raw_extension</td><td style="vertical-align:top;">:</td><td><div>None</div></td></tr><tr><td style="font-weight:bold;vertical-align:top;">url</td><td style="vertical-align:top;">:</td><td><div>/eventify/appadmin/select/db</div></td></tr><tr><td style="font-weight:bold;vertical-align:top;">utcnow</td><td style="vertical-align:top;">:</td><td><div>datetime.datetime(2017, 11, 27, 1, 10, 36, 373870)</div></td></tr><tr><td style="font-weight:bold;vertical-align:top;">wsgi</td><td style="vertical-align:top;">:</td><td><div>&lt;gluon.main.LazyWSGI object at 0x7fae041ebe50&gt;</div></td></tr></table></div>'
tRp62
sS'frames'
p63
(lp64
(dp65
S'file'
p66
S'/home/leonardodutra/workspace/eventify/gluon/restricted.py'
p67
sS'dump'
p68
(dp69
S'environment'
p70
S"{'A': <class 'gluon.html.A'>, 'ANY_OF': <class 'gluon.validators.ANY_OF'>, 'ASSIGNJS': <function ASSIGNJS>, 'AppConfig': <function AppConfig>, 'Auth': <class 'gluon.tools.Auth'>, 'B': <class 'gluon.html.B'>, 'BEAUTIFY': <class 'gluon.html.BEAUTIFY'>, 'BODY': <class 'gluon.html.BODY'>, 'BR': <class 'gluon.html.BR'>, 'BUTTON': <class 'gluon.html.BUTTON'>, ...}"
p71
sS'ccode'
p72
S'<code object <module> at 0x7fade1716430, file "/...ify/applications/eventify/models/dba.py", line 1>'
p73
ssS'lnum'
p74
I227
sS'lines'
p75
(dp76
I224
S'            ccode = code'
p77
sI225
S'        else:'
p78
sI226
S'            ccode = compile2(code, layer)'
p79
sI227
S'        exec ccode in environment'
p80
sI228
S'    except HTTP:'
p81
sI229
S'        raise'
p82
sI230
S'    except RestrictedError:'
p83
sI231
S'        # do not encapsulate (obfuscate) the original RestrictedError'
p84
sI222
S'    try:'
p85
sI223
S'        if isinstance(code, types.CodeType):'
p86
ssS'call'
p87
S'(code="from applications.eventify.modules.countries imp...vo\', \'upload\', label=T(\'Upload\'), notnull=True))\\n", environment={\'A\': <class \'gluon.html.A\'>, \'ANY_OF\': <class \'gluon.validators.ANY_OF\'>, \'ASSIGNJS\': <function ASSIGNJS>, \'AppConfig\': <function AppConfig>, \'Auth\': <class \'gluon.tools.Auth\'>, \'B\': <class \'gluon.html.B\'>, \'BEAUTIFY\': <class \'gluon.html.BEAUTIFY\'>, \'BODY\': <class \'gluon.html.BODY\'>, \'BR\': <class \'gluon.html.BR\'>, \'BUTTON\': <class \'gluon.html.BUTTON\'>, ...}, layer=\'/home/leonardodutra/workspace/eventify/applications/eventify/models/dba.py\')'
p88
sS'func'
p89
S'restricted'
p90
sa(dp91
g66
S'/home/leonardodutra/workspace/eventify/applications/eventify/models/dba.py'
p92
sg68
(dp93
S'Field'
p94
S"<class 'pydal.objects.Field'>"
p95
sS'builtinTrue'
p96
S'True'
p97
sS'notnull'
p98
S'undefined'
p99
sS'T'
S'<gluon.languages.translator object>'
p100
sS'label'
p101
g99
ssg74
I23
sg75
(dp102
I14
S"\tField('titulo', 'string', label=T('T\xc3\xadtulo do Artigo'), notnull=True),"
p103
sI15
S"\tField('autor', 'string', label=T('Autor'), notnull=True),"
p104
sI16
S"\tField('autor2', 'string', label=T('Autor'), notnull=True),"
p105
sI17
S"\tField('autor3', 'string', label=T('Autor'), notnull=True),"
p106
sI18
S"\tField('email', 'string', label=T('E-mail'), notnull=True),"
p107
sI19
S"\tField('email2', 'string', label=T('E-mail')),"
p108
sI20
S"\tField('email3', 'string', label=T('E-mail')),"
p109
sI21
S"\tField('keywords', 'string', label=T('Palavras-chave (separar por v\xc3\xadrgula)')),"
p110
sI22
S"\tField('resumo', 'text', label=T('Resumo do Artigo')),"
p111
sI23
S"\tField('arquivo', 'upload', label=T('Upload'), notnull=True))"
p112
ssg87
S'()'
p113
sg89
S'<module>'
p114
sa(dp115
g66
S'/home/leonardodutra/workspace/eventify/gluon/packages/dal/pydal/base.py'
p116
sg68
(dp117
S'fields'
p118
S'(<pydal.objects.Field object>, <pydal.objects.Field object>, <pydal.objects.Field object>, <pydal.objects.Field object>, <pydal.objects.Field object>, <pydal.objects.Field object>, <pydal.objects.Field object>, <pydal.objects.Field object>, <pydal.objects.Field object>, <pydal.objects.Field object>)'
p119
sS'self'
p120
S'<DAL uri="sqlite://storage.sqlite">'
p121
sS'args'
p122
g21
sS'tablename'
p123
S"'artigo'"
p124
sS'table'
p125
g99
sS'self.lazy_define_table'
p126
S'<bound method DAL.lazy_define_table of <DAL uri="sqlite://storage.sqlite">>'
p127
ssg74
I834
sg75
(dp128
I832
S'            table = None'
p129
sI833
S'        else:'
p130
sI834
S'            table = self.lazy_define_table(tablename,*fields,**args)'
p131
sI835
S'        if not tablename in self.tables:'
p132
sI836
S'            self.tables.append(tablename)'
p133
sI837
S'        return table'
p134
sI838
S''
sI829
S'                    % (tablename,invalid_args))'
p135
sI830
S'        if self._lazy_tables and tablename not in self._LAZY_TABLES:'
p136
sI831
S'            self._LAZY_TABLES[tablename] = (tablename,fields,args)'
p137
ssg87
S'(self=<DAL uri="sqlite://storage.sqlite">, tablename=\'artigo\', *fields=(<pydal.objects.Field object>, <pydal.objects.Field object>, <pydal.objects.Field object>, <pydal.objects.Field object>, <pydal.objects.Field object>, <pydal.objects.Field object>, <pydal.objects.Field object>, <pydal.objects.Field object>, <pydal.objects.Field object>, <pydal.objects.Field object>), **args={})'
p138
sg89
S'define_table'
p139
sa(dp140
g66
S'/home/leonardodutra/workspace/eventify/gluon/packages/dal/pydal/base.py'
p141
sg68
(dp142
S'polymodel'
p143
S'None'
p144
ssg74
I873
sg75
(dp145
I868
S'            try:'
p146
sI869
S'                GLOBAL_LOCKER.acquire()'
p147
sI870
S'                self._lastsql = self._adapter.create_table('
p148
sI871
S'                    table,migrate=migrate,'
p149
sI872
S'                    fake_migrate=fake_migrate,'
p150
sI873
S'                    polymodel=polymodel)'
p151
sI874
S'            finally:'
p152
sI875
S'                GLOBAL_LOCKER.release()'
p153
sI876
S'        else:'
p154
sI877
S'            table._dbt = None'
p155
ssg87
S'(self=<DAL uri="sqlite://storage.sqlite">, tablename=\'artigo\', *fields=(<pydal.objects.Field object>, <pydal.objects.Field object>, <pydal.objects.Field object>, <pydal.objects.Field object>, <pydal.objects.Field object>, <pydal.objects.Field object>, <pydal.objects.Field object>, <pydal.objects.Field object>, <pydal.objects.Field object>, <pydal.objects.Field object>), **args={})'
p156
sg89
S'lazy_define_table'
p157
sa(dp158
g66
S'/home/leonardodutra/workspace/eventify/gluon/packages/dal/pydal/adapters/base.py'
p159
sg68
(dp160
S'fake_migrate'
p161
S'False'
p162
ssg74
I510
sg75
(dp163
I512
S'        return query'
p164
sI513
S''
sI514
S'    def migrate_table('
p165
sI505
S'            if sql_fields != sql_fields_old:'
p166
sI506
S'                self.migrate_table('
p167
sI507
S'                    table,'
p168
sI508
S'                    sql_fields, sql_fields_old,'
p169
sI509
S'                    sql_fields_aux, None,'
p170
sI510
S'                    fake_migrate=fake_migrate'
p171
sI511
S'                    )'
p172
ssg87
S'(self=<pydal.adapters.sqlite.SQLiteAdapter object>, table=<Table artigo (id, titulo, autor, autor2, autor3, email, email2, email3, keywords, resumo, arquivo)>, migrate=True, fake_migrate=False, polymodel=None)'
p173
sg89
S'create_table'
p174
sa(dp175
g66
S'/home/leonardodutra/workspace/eventify/gluon/packages/dal/pydal/adapters/base.py'
p176
sg68
(dp177
S'self'
p178
S'<pydal.adapters.sqlite.SQLiteAdapter object>'
p179
sS'self.execute'
p180
S'<bound method SQLiteAdapter.execute of <pydal.adapters.sqlite.SQLiteAdapter object>>'
p181
sS'sub_query'
p182
S"'ALTER TABLE artigo ADD autor3 CHAR(512) NOT NULL;'"
p183
ssg74
I623
sg75
(dp184
I618
S'                    if fake_migrate:'
p185
sI619
S'                        if db._adapter.commit_on_alter_table:'
p186
sI620
S'                            self.save_dbt(table,sql_fields_current)'
p187
sI621
S"                        self.log('faked!\\n', table)"
p188
sI622
S'                    else:'
p189
sI623
S'                        self.execute(sub_query)'
p190
sI624
S'                        # Caveat: mysql, oracle and firebird'
p191
sI625
S'                        # do not allow multiple alter table'
p192
sI626
S'                        # in one transaction so we must commit'
p193
sI627
S'                        # partial transactions and'
p194
ssg87
S"(self=<pydal.adapters.sqlite.SQLiteAdapter object>, table=<Table artigo (id, titulo, autor, autor2, autor3, email, email2, email3, keywords, resumo, arquivo)>, sql_fields={'arquivo': {'length': 512, 'notnull': True, 'sortable': 11, 'sql': 'CHAR(512) NOT NULL', 'type': 'upload', 'unique': False}, 'autor': {'length': 512, 'notnull': True, 'sortable': 3, 'sql': 'CHAR(512) NOT NULL', 'type': 'string', 'unique': False}, 'autor2': {'length': 512, 'notnull': True, 'sortable': 4, 'sql': 'CHAR(512) NOT NULL', 'type': 'string', 'unique': False}, 'autor3': {'length': 512, 'notnull': True, 'sortable': 5, 'sql': 'CHAR(512) NOT NULL', 'type': 'string', 'unique': False}, 'email': {'length': 512, 'notnull': True, 'sortable': 6, 'sql': 'CHAR(512) NOT NULL', 'type': 'string', 'unique': False}, 'email2': {'length': 512, 'notnull': False, 'sortable': 7, 'sql': 'CHAR(512)', 'type': 'string', 'unique': False}, 'email3': {'length': 512, 'notnull': False, 'sortable': 8, 'sql': 'CHAR(512)', 'type': 'string', 'unique': False}, 'id': {'length': 512, 'notnull': False, 'sortable': 1, 'sql': 'INTEGER PRIMARY KEY AUTOINCREMENT', 'type': 'id', 'unique': False}, 'keywords': {'length': 512, 'notnull': False, 'sortable': 9, 'sql': 'CHAR(512)', 'type': 'string', 'unique': False}, 'resumo': {'length': 32768, 'notnull': False, 'sortable': 10, 'sql': 'TEXT', 'type': 'text', 'unique': False}, ...}, sql_fields_old={'arquivo': {'length': 512, 'notnull': True, 'sortable': 7, 'sql': 'CHAR(512) NOT NULL', 'type': 'upload', 'unique': False}, 'autor': {'length': 512, 'notnull': True, 'sortable': 3, 'sql': 'CHAR(512) NOT NULL', 'type': 'string', 'unique': False}, 'email': {'length': 512, 'notnull': True, 'sortable': 4, 'sql': 'CHAR(512) NOT NULL', 'type': 'string', 'unique': False}, 'id': {'length': 512, 'notnull': False, 'sortable': 1, 'sql': 'INTEGER PRIMARY KEY AUTOINCREMENT', 'type': 'id', 'unique': False}, 'keywords': {'length': 512, 'notnull': False, 'sortable': 5, 'sql': 'CHAR(512)', 'type': 'string', 'unique': False}, 'resumo': {'length': 32768, 'notnull': False, 'sortable': 6, 'sql': 'TEXT', 'type': 'text', 'unique': False}, 'titulo': {'length': 512, 'notnull': True, 'sortable': 2, 'sql': 'CHAR(512) NOT NULL', 'type': 'string', 'unique': False}}, sql_fields_aux={'arquivo': {'sql': 'CHAR(512) NOT NULL'}, 'autor': {'sql': 'CHAR(512) NOT NULL'}, 'autor2': {'sql': 'CHAR(512) NOT NULL'}, 'autor3': {'sql': 'CHAR(512) NOT NULL'}, 'email': {'sql': 'CHAR(512) NOT NULL'}, 'email2': {'sql': 'CHAR(512)'}, 'email3': {'sql': 'CHAR(512)'}, 'id': {'sql': 'INTEGER PRIMARY KEY AUTOINCREMENT'}, 'keywords': {'sql': 'CHAR(512)'}, 'resumo': {'sql': 'TEXT'}, ...}, logfile=None, fake_migrate=False)"
p195
sg89
S'migrate_table'
p196
sa(dp197
g66
S'/home/leonardodutra/workspace/eventify/gluon/packages/dal/pydal/adapters/base.py'
p198
sg68
(dp199
S'a'
S"('ALTER TABLE artigo ADD autor3 CHAR(512) NOT NULL;',)"
p200
sS'self'
p201
S'<pydal.adapters.sqlite.SQLiteAdapter object>'
p202
sS'b'
g21
sS'self.log_execute'
p203
S'<bound method SQLiteAdapter.log_execute of <pydal.adapters.sqlite.SQLiteAdapter object>>'
p204
ssg74
I1388
sg75
(dp205
I1383
S'        self.db._timings.append((command,time.time()-t0))'
p206
sI1384
S'        del self.db._timings[:-TIMINGSSIZE]'
p207
sI1385
S'        return ret'
p208
sI1386
S''
sI1387
S'    def execute(self, *a, **b):'
p209
sI1388
S'        return self.log_execute(*a, **b)'
p210
sI1389
S''
sI1390
S'    def execute_test_query(self):'
p211
sI1391
S'        return self.execute(self.test_query)'
p212
sI1392
S''
ssg87
S"(self=<pydal.adapters.sqlite.SQLiteAdapter object>, *a=('ALTER TABLE artigo ADD autor3 CHAR(512) NOT NULL;',), **b={})"
p213
sg89
S'execute'
p214
sa(dp215
g66
S'/home/leonardodutra/workspace/eventify/gluon/packages/dal/pydal/adapters/base.py'
p216
sg68
(dp217
S'a'
S"('ALTER TABLE artigo ADD autor3 CHAR(512) NOT NULL;',)"
p218
sS'b'
g21
sS'self'
p219
S'<pydal.adapters.sqlite.SQLiteAdapter object>'
p220
sS'ret'
p221
g99
sS'command'
p222
S"'ALTER TABLE artigo ADD autor3 CHAR(512) NOT NULL;'"
p223
sS'self.get_cursor'
p224
S'<bound method SQLiteAdapter.get_cursor of <pydal.adapters.sqlite.SQLiteAdapter object>>'
p225
sS').execute'
p226
g99
ssg74
I1382
sg75
(dp227
I1377
S'            command = self.filter_sql_command(command)'
p228
sI1378
S'        if self.db._debug:'
p229
sI1379
S"            self.db.logger.debug('SQL: %s' % command)"
p230
sI1380
S'        self.db._lastsql = command'
p231
sI1381
S'        t0 = time.time()'
p232
sI1382
S'        ret = self.get_cursor().execute(command, *a[1:], **b)'
p233
sI1383
S'        self.db._timings.append((command,time.time()-t0))'
p234
sI1384
S'        del self.db._timings[:-TIMINGSSIZE]'
p235
sI1385
S'        return ret'
p236
sI1386
S''
ssg87
S"(self=<pydal.adapters.sqlite.SQLiteAdapter object>, *a=('ALTER TABLE artigo ADD autor3 CHAR(512) NOT NULL;',), **b={})"
p237
sg89
S'log_execute'
p238
sasS'pyver'
p239
S'Python 2.7.6: /usr/bin/python2 (prefix: /usr)'
p240
sS'session'
p241
g61
(S's\xb9\x01\x00\x00<div><table><tr><td style="font-weight:bold;vertical-align:top;">flash</td><td style="vertical-align:top;">:</td><td><div>None</div></td></tr><tr><td style="font-weight:bold;vertical-align:top;">last_orderby</td><td style="vertical-align:top;">:</td><td><div>None</div></td></tr><tr><td style="font-weight:bold;vertical-align:top;">last_query</td><td style="vertical-align:top;">:</td><td><div>db.artigo.id&gt;0</div></td></tr></table></div>'
tRp242
sS'etype'
p243
S"<class 'sqlite3.OperationalError'>"
p244
sS'date'
p245
S'Sun Nov 26 22:10:36 2017'
p246
sS'response'
p247
g61
(S's\x95\x17\x00\x00<div><table><tr><td style="font-weight:bold;vertical-align:top;">body</td><td style="vertical-align:top;">:</td><td><div>&lt;cStringIO.StringO object at 0x7fae20e4c848&gt;</div></td></tr><tr><td style="font-weight:bold;vertical-align:top;">cookies</td><td style="vertical-align:top;">:</td><td><div><table><tr><td style="font-weight:bold;vertical-align:top;">session_id_eventify</td><td style="vertical-align:top;">:</td><td><div>127.0.0.1-df89416c-2653-452c-b9a7-6848f668c6fd<table><tr><td style="font-weight:bold;vertical-align:top;">comment</td><td style="vertical-align:top;">:</td><td><div></div></td></tr><tr><td style="font-weight:bold;vertical-align:top;">domain</td><td style="vertical-align:top;">:</td><td><div></div></td></tr><tr><td style="font-weight:bold;vertical-align:top;">expires</td><td style="vertical-align:top;">:</td><td><div></div></td></tr><tr><td style="font-weight:bold;vertical-align:top;">httponly</td><td style="vertical-align:top;">:</td><td><div></div></td></tr><tr><td style="font-weight:bold;vertical-align:top;">max-age</td><td style="vertical-align:top;">:</td><td><div></div></td></tr><tr><td style="font-weight:bold;vertical-align:top;">path</td><td style="vertical-align:top;">:</td><td><div>/</div></td></tr><tr><td style="font-weight:bold;vertical-align:top;">secure</td><td style="vertical-align:top;">:</td><td><div></div></td></tr><tr><td style="font-weight:bold;vertical-align:top;">version</td><td style="vertical-align:top;">:</td><td><div></div></td></tr></table></div></td></tr></table></div></td></tr><tr><td style="font-weight:bold;vertical-align:top;">delimiters</td><td style="vertical-align:top;">:</td><td><div><table><tr><td><div>{{</div></td></tr><tr><td><div>}}</div></td></tr></table></div></td></tr><tr><td style="font-weight:bold;vertical-align:top;">files</td><td style="vertical-align:top;">:</td><td><div><table></table></div></td></tr><tr><td style="font-weight:bold;vertical-align:top;">flash</td><td style="vertical-align:top;">:</td><td><div></div></td></tr><tr><td style="font-weight:bold;vertical-align:top;">form_label_separator</td><td style="vertical-align:top;">:</td><td><div></div></td></tr><tr><td style="font-weight:bold;vertical-align:top;">formstyle</td><td style="vertical-align:top;">:</td><td><div>bootstrap3_inline</div></td></tr><tr><td style="font-weight:bold;vertical-align:top;">generic_patterns</td><td style="vertical-align:top;">:</td><td><div><table><tr><td><div>*</div></td></tr></table></div></td></tr><tr><td style="font-weight:bold;vertical-align:top;">headers</td><td style="vertical-align:top;">:</td><td><div><table><tr><td style="font-weight:bold;vertical-align:top;">X-Powered-By</td><td style="vertical-align:top;">:</td><td><div>web2py</div></td></tr></table></div></td></tr><tr><td style="font-weight:bold;vertical-align:top;">menu</td><td style="vertical-align:top;">:</td><td><div><table></table></div></td></tr><tr><td style="font-weight:bold;vertical-align:top;">meta</td><td style="vertical-align:top;">:</td><td><div><table></table></div></td></tr><tr><td style="font-weight:bold;vertical-align:top;">models_to_run</td><td style="vertical-align:top;">:</td><td><div><table><tr><td><div>^\\w+\\.py$</div></td></tr><tr><td><div>^appadmin/\\w+\\.py$</div></td></tr><tr><td><div>^appadmin/select/\\w+\\.py$</div></td></tr></table></div></td></tr><tr><td style="font-weight:bold;vertical-align:top;">postprocessing</td><td style="vertical-align:top;">:</td><td><div><table></table></div></td></tr><tr><td style="font-weight:bold;vertical-align:top;">session_client</td><td style="vertical-align:top;">:</td><td><div>127.0.0.1</div></td></tr><tr><td style="font-weight:bold;vertical-align:top;">session_cookie_compression_level</td><td style="vertical-align:top;">:</td><td><div>None</div></td></tr><tr><td style="font-weight:bold;vertical-align:top;">session_cookie_expires</td><td style="vertical-align:top;">:</td><td><div>None</div></td></tr><tr><td style="font-weight:bold;vertical-align:top;">session_data_name</td><td style="vertical-align:top;">:</td><td><div>session_data_eventify</div></td></tr><tr><td style="font-weight:bold;vertical-align:top;">session_file</td><td style="vertical-align:top;">:</td><td><div>&lt;open file &#x27;/home/leonardodutra/workspace/eventify/applications/eventify/sessions/1fc/09e/127.0.0.1-df89416c-2653-452c-b9a7-6848f668c6fd&#x27;, mode &#x27;rb+&#x27; at 0x7fae1a027810&gt;</div></td></tr><tr><td style="font-weight:bold;vertical-align:top;">session_filename</td><td style="vertical-align:top;">:</td><td><div>/home/leonardodutra/workspace/eventify/applications/eventify/sessions/127.0.0.1-df89416c-2653-452c-b9a7-6848f668c6fd</div></td></tr><tr><td style="font-weight:bold;vertical-align:top;">session_hash</td><td style="vertical-align:top;">:</td><td><div>a97104be3835dfdcfb709d4b48bed560</div></td></tr><tr><td style="font-weight:bold;vertical-align:top;">session_id</td><td style="vertical-align:top;">:</td><td><div>127.0.0.1-df89416c-2653-452c-b9a7-6848f668c6fd</div></td></tr><tr><td style="font-weight:bold;vertical-align:top;">session_id_name</td><td style="vertical-align:top;">:</td><td><div>session_id_eventify</div></td></tr><tr><td style="font-weight:bold;vertical-align:top;">session_locked</td><td style="vertical-align:top;">:</td><td><div>True</div></td></tr><tr><td style="font-weight:bold;vertical-align:top;">session_masterapp</td><td style="vertical-align:top;">:</td><td><div>eventify</div></td></tr><tr><td style="font-weight:bold;vertical-align:top;">session_new</td><td style="vertical-align:top;">:</td><td><div>False</div></td></tr><tr><td style="font-weight:bold;vertical-align:top;">session_storage_type</td><td style="vertical-align:top;">:</td><td><div>file</div></td></tr><tr><td style="font-weight:bold;vertical-align:top;">status</td><td style="vertical-align:top;">:</td><td><div>200</div></td></tr><tr><td style="font-weight:bold;vertical-align:top;">view</td><td style="vertical-align:top;">:</td><td><div>appadmin/select.html</div></td></tr></table></div>'
tRp248
sS'locals'
p249
(dp250
S'a'
S"('ALTER TABLE artigo ADD autor3 CHAR(512) NOT NULL;',)"
p251
sS'self'
p252
S'<pydal.adapters.sqlite.SQLiteAdapter object>'
p253
sS'b'
g21
sS'command'
p254
S"'ALTER TABLE artigo ADD autor3 CHAR(512) NOT NULL;'"
p255
sS't0'
p256
S'1511745036.406357'
p257
sssS'traceback'
p258
S'Traceback (most recent call last):\n  File "/home/leonardodutra/workspace/eventify/gluon/restricted.py", line 227, in restricted\n    exec ccode in environment\n  File "/home/leonardodutra/workspace/eventify/applications/eventify/models/dba.py", line 23, in <module>\n    Field(\'arquivo\', \'upload\', label=T(\'Upload\'), notnull=True))\n  File "/home/leonardodutra/workspace/eventify/gluon/packages/dal/pydal/base.py", line 834, in define_table\n    table = self.lazy_define_table(tablename,*fields,**args)\n  File "/home/leonardodutra/workspace/eventify/gluon/packages/dal/pydal/base.py", line 873, in lazy_define_table\n    polymodel=polymodel)\n  File "/home/leonardodutra/workspace/eventify/gluon/packages/dal/pydal/adapters/base.py", line 510, in create_table\n    fake_migrate=fake_migrate\n  File "/home/leonardodutra/workspace/eventify/gluon/packages/dal/pydal/adapters/base.py", line 623, in migrate_table\n    self.execute(sub_query)\n  File "/home/leonardodutra/workspace/eventify/gluon/packages/dal/pydal/adapters/base.py", line 1388, in execute\n    return self.log_execute(*a, **b)\n  File "/home/leonardodutra/workspace/eventify/gluon/packages/dal/pydal/adapters/base.py", line 1382, in log_execute\n    ret = self.get_cursor().execute(command, *a[1:], **b)\nOperationalError: Cannot add a NOT NULL column with default value NULL\n'
p259
s.